(dp1
S'OriginalConfig'
p2
ccopy_reg
_reconstructor
p3
(cWMCore.Configuration
Configuration
p4
c__builtin__
object
p5
NtRp6
(dp7
S'Site'
p8
g3
(cWMCore.Configuration
ConfigSection
p9
g5
NtRp10
(dp11
S'_internal_skipChecks'
p12
I00
sS'_internal_documentation'
p13
S''
sS'_internal_settings'
p14
c__builtin__
set
p15
((lp16
S'storageSite'
p17
atRp18
sS'_internal_name'
p19
g8
sS'_internal_docstrings'
p20
(dp21
sS'_internal_children'
p22
g15
((ltRp23
sg17
S'T2_TW_NCHC'
p24
sS'_internal_parent_ref'
p25
NsbsS'_internal_sections'
p26
(lp27
S'General'
p28
aS'JobType'
p29
aS'Data'
p30
ag8
aS'User'
p31
aS'Debug'
p32
asg28
g3
(g9
g5
NtRp33
(dp34
S'transferLogs'
p35
I01
sg12
I00
sg13
S''
sg14
g15
((lp36
g35
aS'instance'
p37
aS'transferOutputs'
p38
aS'workArea'
p39
aS'requestName'
p40
atRp41
sg19
g28
sg20
(dp42
sg37
S'prod'
p43
sg38
I01
sg22
g15
((ltRp44
sg40
S'TnP_SingleElectron_Run2016H_21Feb2020_UL2016_v2_MINIAOD'
p45
sg25
Nsg39
S'./crab_config_16postVFP-UL_2021_Sep_11/'
p46
sbsS'_internal_webapps'
p47
(lp48
sg31
g3
(g9
g5
NtRp49
(dp50
g12
I00
sg13
S''
sg14
g15
((ltRp51
sg19
g31
sg20
(dp52
sg22
g15
((ltRp53
sg25
NsbsS'_internal_components'
p54
(lp55
sg32
g3
(g9
g5
NtRp56
(dp57
g12
I00
sg13
S''
sg14
g15
((ltRp58
sg19
g32
sg20
(dp59
sg22
g15
((ltRp60
sg25
Nsbsg30
g3
(g9
g5
NtRp61
(dp62
S'inputDataset'
p63
S'/SingleElectron/Run2016H-21Feb2020_UL2016-v2/MINIAOD'
p64
sg12
I00
sS'splitting'
p65
S'LumiBased'
p66
sS'unitsPerJob'
p67
I50
sg13
S''
sg14
g15
((lp68
g63
ag67
aS'outLFNDirBase'
p69
aS'inputDBS'
p70
ag65
atRp71
sg19
g30
sg70
S'global'
p72
sg20
(dp73
sg22
g15
((ltRp74
sg69
S'/store/user/pusheng/HLTSF_2021_Sep_11_0504'
p75
sg25
Nsbsg29
g3
(g9
g5
NtRp76
(dp77
g12
I00
sS'pyCfgParams'
p78
(lp79
S'useMC=False'
p80
aS'lepton=el'
p81
aS'Debug=1'
p82
aS'year=16postVFP-UL'
p83
asg13
S''
sg14
g15
((lp84
S'psetName'
p85
aS'pluginName'
p86
aS'maxJobRuntimeMin'
p87
ag78
aS'maxMemoryMB'
p88
atRp89
sg19
g29
sg20
(dp90
sg86
S'Analysis'
p91
sg22
g15
((ltRp92
sg85
S'DataFltr_cfg.py'
p93
sg25
Nsg87
I2000
sg88
I2000
sbsbsS'voGroup'
p94
S''
sS'Server'
p95
S'cmsweb.cern.ch'
p96
sg37
g43
sS'RequestName'
p97
V210911_030517:pusheng_crab_TnP_SingleElectron_Run2016H_21Feb2020_UL2016_v2_MINIAOD
p98
sS'voRole'
p99
S'NULL'
p100
sS'Port'
p101
S''
s.