ccopy_reg
_reconstructor
p0
(cFWCore.ParameterSet.Config
Process
p1
c__builtin__
object
p2
Ntp3
Rp4
(dp5
S'CaloGeometryBuilder'
p6
g0
(cFWCore.ParameterSet.Modules
ESProducer
p7
g2
Ntp8
Rp9
(dp10
S'_Parameterizable__parameterNames'
p11
(lp12
S'SelectedCalos'
p13
asS'_isFrozen'
p14
I00
sS'_isModified'
p15
I00
sS'_lineNumber'
p16
I52
sS'_filename'
p17
S'/cvmfs/cms.cern.ch/slc6_amd64_gcc530/cms/cmssw/CMSSW_9_2_8/python/FWCore/ParameterSet/Modules.py'
p18
sg13
g0
(cFWCore.ParameterSet.Types
vstring
p19
c__builtin__
list
p20
(lp21
S'HCAL'
p22
aS'ZDC'
p23
aS'CASTOR'
p24
aS'EcalBarrel'
p25
aS'EcalEndcap'
p26
aS'EcalPreshower'
p27
aS'TOWER'
p28
atp29
Rp30
(dp31
g14
I00
sS'_ParameterTypeBase__isTracked'
p32
I01
sg15
I00
sS'_nPerLine'
p33
I1
sbsS'_Labelable__label'
p34
g6
sS'_TypedParameterizable__type'
p35
g6
sbsS'_Process__sequences'
p36
(dp37
S'egmGsfElectronIDSequence'
p38
g0
(cFWCore.ParameterSet.SequenceTypes
Sequence
p39
g2
Ntp40
Rp41
(dp42
g14
I00
sS'_seq'
p43
Nsg34
g38
sg15
I00
sS'_tasks'
p44
g0
(cFWCore.ParameterSet.OrderedSet
OrderedSet
p45
g2
Ntp46
Rp47
(dp48
S'map'
p49
(dp50
g0
(cFWCore.ParameterSet.SequenceTypes
Task
p51
g2
Ntp52
Rp53
(dp54
S'_collection'
p55
g0
(g45
g2
Ntp56
Rp57
(dp58
g49
(dp59
g0
(cFWCore.ParameterSet.Modules
EDProducer
p60
g2
Ntp61
Rp62
(dp63
g11
(lp64
S'src'
p65
aS'srcMiniAOD'
p66
aS'mvaConfigurations'
p67
asg14
I00
sg66
g0
(cFWCore.ParameterSet.Types
InputTag
p68
g2
Ntp69
Rp70
(dp71
g14
I00
sg32
I01
sg15
I00
sS'_InputTag__moduleLabel'
p72
S'slimmedElectrons'
p73
sS'_InputTag__processName'
p74
S'@skipCurrentProcess'
p75
sS'_InputTag__productInstance'
p76
S''
p77
sbsg15
I00
sg65
g0
(g68
g2
Ntp78
Rp79
(dp80
g14
I00
sg32
I01
sg15
I00
sg72
S'gedGsfElectrons'
p81
sg74
g77
sg76
g77
sbsg17
S'/cvmfs/cms.cern.ch/slc6_amd64_gcc530/cms/cmssw/CMSSW_9_2_8/python/RecoEgamma/ElectronIdentification/ElectronMVAValueMapProducer_cfi.py'
p82
sg67
g0
(cFWCore.ParameterSet.Types
VPSet
p83
g20
(lp84
g0
(cFWCore.ParameterSet.Types
PSet
p85
g2
Ntp86
Rp87
(dp88
g14
I00
sg32
I01
sg15
I00
sS'weightFileNames'
p89
g0
(g19
g20
(lp90
S'RecoEgamma/ElectronIdentification/data/PHYS14/EIDmva_EB1_5_oldscenario2phys14_BDT.weights.xml'
p91
aS'RecoEgamma/ElectronIdentification/data/PHYS14/EIDmva_EB2_5_oldscenario2phys14_BDT.weights.xml'
p92
aS'RecoEgamma/ElectronIdentification/data/PHYS14/EIDmva_EE_5_oldscenario2phys14_BDT.weights.xml'
p93
aS'RecoEgamma/ElectronIdentification/data/PHYS14/EIDmva_EB1_10_oldscenario2phys14_BDT.weights.xml'
p94
aS'RecoEgamma/ElectronIdentification/data/PHYS14/EIDmva_EB2_10_oldscenario2phys14_BDT.weights.xml'
p95
aS'RecoEgamma/ElectronIdentification/data/PHYS14/EIDmva_EE_10_oldscenario2phys14_BDT.weights.xml'
p96
atp97
Rp98
(dp99
g14
I00
sg32
I01
sg15
I00
sg33
I1
sbsS'mvaName'
p100
g0
(cFWCore.ParameterSet.Types
string
p101
g2
Ntp102
Rp103
(dp104
g14
I00
sg32
I01
sS'_value'
p105
S'ElectronMVAEstimatorRun2Phys14NonTrig'
p106
sg15
I00
sbsS'mvaTag'
p107
g0
(g101
g2
Ntp108
Rp109
(dp110
g14
I00
sg32
I01
sg105
S'25nsV1'
p111
sg15
I00
sbsg11
(lp112
g100
ag89
ag107
asg34
S'mvaEleID_PHYS14_PU20bx25_nonTrig_V1_producer_config'
p113
sbag0
(g85
g2
Ntp114
Rp115
(dp116
g14
I00
sg32
I01
sS'beamSpot'
p117
g0
(g68
g2
Ntp118
Rp119
(dp120
g14
I00
sg32
I01
sg15
I00
sg72
S'offlineBeamSpot'
p121
sg74
g77
sg76
g77
sbsS'conversionsAOD'
p122
g0
(g68
g2
Ntp123
Rp124
(dp125
g14
I00
sg32
I01
sg15
I00
sg72
S'allConversions'
p126
sg74
g77
sg76
g77
sbsS'conversionsMiniAOD'
p127
g0
(g68
g2
Ntp128
Rp129
(dp130
g14
I00
sg32
I01
sg15
I00
sg72
S'reducedEgamma'
p131
sg74
g77
sg76
S'reducedConversions'
p132
sbsg89
g0
(g19
g20
(lp133
S'RecoEgamma/ElectronIdentification/data/Spring15/EIDmva_EB1_5_oldNonTrigSpring15_ConvVarCwoBoolean_TMVA412_FullStatLowPt_PairNegWeightsGlobal_BDT.weights.xml'
p134
aS'RecoEgamma/ElectronIdentification/data/Spring15/EIDmva_EB2_5_oldNonTrigSpring15_ConvVarCwoBoolean_TMVA412_FullStatLowPt_PairNegWeightsGlobal_BDT.weights.xml'
p135
aS'RecoEgamma/ElectronIdentification/data/Spring15/EIDmva_EE_5_oldNonTrigSpring15_ConvVarCwoBoolean_TMVA412_FullStatLowPt_PairNegWeightsGlobal_BDT.weights.xml'
p136
aS'RecoEgamma/ElectronIdentification/data/Spring15/EIDmva_EB1_10_oldNonTrigSpring15_ConvVarCwoBoolean_TMVA412_FullStatLowPt_PairNegWeightsGlobal_BDT.weights.xml'
p137
aS'RecoEgamma/ElectronIdentification/data/Spring15/EIDmva_EB2_10_oldNonTrigSpring15_ConvVarCwoBoolean_TMVA412_FullStatLowPt_PairNegWeightsGlobal_BDT.weights.xml'
p138
aS'RecoEgamma/ElectronIdentification/data/Spring15/EIDmva_EE_10_oldNonTrigSpring15_ConvVarCwoBoolean_TMVA412_FullStatLowPt_PairNegWeightsGlobal_BDT.weights.xml'
p139
atp140
Rp141
(dp142
g14
I00
sg32
I01
sg15
I00
sg33
I1
sbsg100
g0
(g101
g2
Ntp143
Rp144
(dp145
g14
I00
sg32
I01
sg105
S'ElectronMVAEstimatorRun2Spring15NonTrig'
p146
sg15
I00
sbsg107
g0
(g101
g2
Ntp147
Rp148
(dp149
g14
I00
sg32
I01
sg105
g111
sg15
I00
sbsg11
(lp150
g100
ag117
ag122
ag127
ag89
ag107
asg34
S'mvaEleID_Spring15_25ns_nonTrig_V1_producer_config'
p151
sg15
I00
sbag0
(g85
g2
Ntp152
Rp153
(dp154
g14
I00
sg32
I01
sg117
g0
(g68
g2
Ntp155
Rp156
(dp157
g14
I00
sg32
I01
sg15
I00
sg72
g121
sg74
g77
sg76
g77
sbsg122
g0
(g68
g2
Ntp158
Rp159
(dp160
g14
I00
sg32
I01
sg15
I00
sg72
g126
sg74
g77
sg76
g77
sbsg127
g0
(g68
g2
Ntp161
Rp162
(dp163
g14
I00
sg32
I01
sg15
I00
sg72
S'reducedEgamma'
p164
sg74
g77
sg76
S'reducedConversions'
p165
sbsg89
g0
(g19
g20
(lp166
S'RecoEgamma/ElectronIdentification/data/Spring15/EIDmva_EB1_10_oldTrigSpring15_50ns_data_1_VarD_TMVA412_Sig6BkgAll_MG_noSpec_BDT.weights.xml'
p167
aS'RecoEgamma/ElectronIdentification/data/Spring15/EIDmva_EB2_10_oldTrigSpring15_50ns_data_1_VarD_TMVA412_Sig6BkgAll_MG_noSpec_BDT.weights.xml'
p168
aS'RecoEgamma/ElectronIdentification/data/Spring15/EIDmva_EE_10_oldTrigSpring15_50ns_data_1_VarD_TMVA412_Sig6BkgAll_MG_noSpec_BDT.weights.xml'
p169
atp170
Rp171
(dp172
g14
I00
sg32
I01
sg15
I00
sg33
I1
sbsg100
g0
(g101
g2
Ntp173
Rp174
(dp175
g14
I00
sg32
I01
sg105
S'ElectronMVAEstimatorRun2Spring15Trig'
p176
sg15
I00
sbsg107
g0
(g101
g2
Ntp177
Rp178
(dp179
g14
I00
sg32
I01
sg105
S'50nsV1'
p180
sg15
I00
sbsg11
(lp181
g100
ag117
ag122
ag127
ag89
ag107
asg34
S'mvaEleID_Spring15_50ns_Trig_V1_producer_config'
p182
sg15
I00
sbag0
(g85
g2
Ntp183
Rp184
(dp185
g14
I00
sg32
I01
sg117
g0
(g68
g2
Ntp186
Rp187
(dp188
g14
I00
sg32
I01
sg15
I00
sg72
g121
sg74
g77
sg76
g77
sbsg122
g0
(g68
g2
Ntp189
Rp190
(dp191
g14
I00
sg32
I01
sg15
I00
sg72
g126
sg74
g77
sg76
g77
sbsg127
g0
(g68
g2
Ntp192
Rp193
(dp194
g14
I00
sg32
I01
sg15
I00
sg72
S'reducedEgamma'
p195
sg74
g77
sg76
S'reducedConversions'
p196
sbsg89
g0
(g19
g20
(lp197
S'RecoEgamma/ElectronIdentification/data/Spring15/EIDmva_EB1_10_oldTrigSpring15_25ns_data_1_VarD_TMVA412_Sig6BkgAll_MG_noSpec_BDT.weights.xml'
p198
aS'RecoEgamma/ElectronIdentification/data/Spring15/EIDmva_EB2_10_oldTrigSpring15_25ns_data_1_VarD_TMVA412_Sig6BkgAll_MG_noSpec_BDT.weights.xml'
p199
aS'RecoEgamma/ElectronIdentification/data/Spring15/EIDmva_EE_10_oldTrigSpring15_25ns_data_1_VarD_TMVA412_Sig6BkgAll_MG_noSpec_BDT.weights.xml'
p200
atp201
Rp202
(dp203
g14
I00
sg32
I01
sg15
I00
sg33
I1
sbsg100
g0
(g101
g2
Ntp204
Rp205
(dp206
g14
I00
sg32
I01
sg105
g176
sg15
I00
sbsg107
g0
(g101
g2
Ntp207
Rp208
(dp209
g14
I00
sg32
I01
sg105
g111
sg15
I00
sbsg11
(lp210
g100
ag117
ag122
ag127
ag89
ag107
asg34
S'mvaEleID_Spring15_25ns_Trig_V1_producer_config'
p211
sg15
I00
sbag0
(g85
g2
Ntp212
Rp213
(dp214
g14
I00
sg32
I01
sg117
g0
(g68
g2
Ntp215
Rp216
(dp217
g14
I00
sg32
I01
sg15
I00
sg72
g121
sg74
g77
sg76
g77
sbsg122
g0
(g68
g2
Ntp218
Rp219
(dp220
g14
I00
sg32
I01
sg15
I00
sg72
g126
sg74
g77
sg76
g77
sbsg127
g0
(g68
g2
Ntp221
Rp222
(dp223
g14
I00
sg32
I01
sg15
I00
sg72
S'reducedEgamma'
p224
sg74
g77
sg76
S'reducedConversions'
p225
sbsg89
g0
(g19
g20
(lp226
S'RecoEgamma/ElectronIdentification/data/Spring16_HZZ_V1/electronID_mva_Spring16_HZZ_V1_EB1_5.weights.xml'
p227
aS'RecoEgamma/ElectronIdentification/data/Spring16_HZZ_V1/electronID_mva_Spring16_HZZ_V1_EB2_5.weights.xml'
p228
aS'RecoEgamma/ElectronIdentification/data/Spring16_HZZ_V1/electronID_mva_Spring16_HZZ_V1_EE_5.weights.xml'
p229
aS'RecoEgamma/ElectronIdentification/data/Spring16_HZZ_V1/electronID_mva_Spring16_HZZ_V1_EB1_10.weights.xml'
p230
aS'RecoEgamma/ElectronIdentification/data/Spring16_HZZ_V1/electronID_mva_Spring16_HZZ_V1_EB2_10.weights.xml'
p231
aS'RecoEgamma/ElectronIdentification/data/Spring16_HZZ_V1/electronID_mva_Spring16_HZZ_V1_EE_10.weights.xml'
p232
atp233
Rp234
(dp235
g14
I00
sg32
I01
sg15
I00
sg33
I1
sbsg100
g0
(g101
g2
Ntp236
Rp237
(dp238
g14
I00
sg32
I01
sg105
S'ElectronMVAEstimatorRun2Spring16HZZ'
p239
sg15
I00
sbsg107
g0
(g101
g2
Ntp240
Rp241
(dp242
g14
I00
sg32
I01
sg105
S'V1'
p243
sg15
I00
sbsg11
(lp244
g100
ag117
ag122
ag127
ag89
ag107
asg34
S'mvaEleID_Spring16_HZZ_V1_producer_config'
p245
sg15
I00
sbag0
(g85
g2
Ntp246
Rp247
(dp248
g14
I00
sg32
I01
sg117
g0
(g68
g2
Ntp249
Rp250
(dp251
g14
I00
sg32
I01
sg15
I00
sg72
g121
sg74
g77
sg76
g77
sbsg122
g0
(g68
g2
Ntp252
Rp253
(dp254
g14
I00
sg32
I01
sg15
I00
sg72
g126
sg74
g77
sg76
g77
sbsg127
g0
(g68
g2
Ntp255
Rp256
(dp257
g14
I00
sg32
I01
sg15
I00
sg72
S'reducedEgamma'
p258
sg74
g77
sg76
S'reducedConversions'
p259
sbsg89
g0
(g19
g20
(lp260
S'RecoEgamma/ElectronIdentification/data/Spring16_GeneralPurpose_V1/electronID_mva_Spring16_GeneralPurpose_V1_EB1_10.weights.xml'
p261
aS'RecoEgamma/ElectronIdentification/data/Spring16_GeneralPurpose_V1/electronID_mva_Spring16_GeneralPurpose_V1_EB2_10.weights.xml'
p262
aS'RecoEgamma/ElectronIdentification/data/Spring16_GeneralPurpose_V1/electronID_mva_Spring16_GeneralPurpose_V1_EE_10.weights.xml'
p263
atp264
Rp265
(dp266
g14
I00
sg32
I01
sg15
I00
sg33
I1
sbsg100
g0
(g101
g2
Ntp267
Rp268
(dp269
g14
I00
sg32
I01
sg105
S'ElectronMVAEstimatorRun2Spring16GeneralPurpose'
p270
sg15
I00
sbsg107
g0
(g101
g2
Ntp271
Rp272
(dp273
g14
I00
sg32
I01
sg105
g243
sg15
I00
sbsg11
(lp274
g100
ag117
ag122
ag127
ag89
ag107
asg34
S'mvaEleID_Spring16_GeneralPurpose_V1_producer_config'
p275
sg15
I00
sbatp276
Rp277
(dp278
g14
I00
sg32
I01
sg34
S'mvaConfigsForEleProducer'
p279
sg15
I00
sg33
I1
sbsg16
I40
sg34
S'electronMVAValueMapProducer'
p280
sg35
S'ElectronMVAValueMapProducer'
p281
sb(lp282
g62
a(lp283
Na(lp284
g0
(g60
g2
Ntp285
Rp286
(dp287
g11
(lp288
g65
ag66
aS'esReducedRecHitCollectionMiniAOD'
p289
aS'eeReducedRecHitCollection'
p290
aS'ebReducedRecHitCollectionMiniAOD'
p291
aS'eeReducedRecHitCollectionMiniAOD'
p292
aS'useFull5x5'
p293
aS'esReducedRecHitCollection'
p294
aS'ebReducedRecHitCollection'
p295
asg14
I00
sg66
g0
(g68
g2
Ntp296
Rp297
(dp298
g14
I00
sg32
I01
sg15
I00
sg72
g73
sg74
g75
sg76
g77
sbsg15
I00
sg65
g0
(g68
g2
Ntp299
Rp300
(dp301
g14
I00
sg32
I01
sg15
I00
sg72
g81
sg74
g77
sg76
g77
sbsg17
S'/cvmfs/cms.cern.ch/slc6_amd64_gcc530/cms/cmssw/CMSSW_9_2_8/python/RecoEgamma/ElectronIdentification/ElectronRegressionValueMapProducer_cfi.py'
p302
sg290
g0
(g68
g2
Ntp303
Rp304
(dp305
g14
I00
sg32
I01
sg15
I00
sg72
S'reducedEcalRecHitsEE'
p306
sg74
g77
sg76
g77
sbsg294
g0
(g68
g2
Ntp307
Rp308
(dp309
g14
I00
sg32
I01
sg15
I00
sg72
S'reducedEcalRecHitsES'
p310
sg74
g77
sg76
g77
sbsg291
g0
(g68
g2
Ntp311
Rp312
(dp313
g14
I00
sg32
I01
sg15
I00
sg72
S'reducedEgamma'
p314
sg74
g77
sg76
S'reducedEBRecHits'
p315
sbsg292
g0
(g68
g2
Ntp316
Rp317
(dp318
g14
I00
sg32
I01
sg15
I00
sg72
S'reducedEgamma'
p319
sg74
g77
sg76
S'reducedEERecHits'
p320
sbsg16
I20
sg293
g0
(cFWCore.ParameterSet.Types
bool
p321
g2
Ntp322
Rp323
(dp324
g14
I00
sg32
I01
sg105
I00
sg15
I00
sbsg289
g0
(g68
g2
Ntp325
Rp326
(dp327
g14
I00
sg32
I01
sg15
I00
sg72
S'reducedEgamma'
p328
sg74
g77
sg76
S'reducedESRecHits'
p329
sbsg34
S'electronRegressionValueMapProducer'
p330
sg35
S'ElectronRegressionValueMapProducer'
p331
sg295
g0
(g68
g2
Ntp332
Rp333
(dp334
g14
I00
sg32
I01
sg15
I00
sg72
S'reducedEcalRecHitsEB'
p335
sg74
g77
sg76
g77
sbsba(lp336
g0
(g60
g2
Ntp337
Rp338
(dp339
g11
(lp340
S'physicsObjectIDs'
p341
aS'physicsObjectSrc'
p342
asg14
I00
sg15
I01
sg16
I6
sg17
S'/cvmfs/cms.cern.ch/slc6_amd64_gcc530/cms/cmssw/CMSSW_9_2_8/python/RecoEgamma/ElectronIdentification/egmGsfElectronIDs_cfi.py'
p343
sg342
g0
(g68
g2
Ntp344
Rp345
(dp346
g14
I00
sg32
I01
sg15
I00
sg72
g73
sg74
g77
sg76
g77
sbsg341
g0
(g83
g20
(lp347
g0
(g85
g2
Ntp348
Rp349
(dp350
g14
I00
sg32
I01
sS'idDefinition'
p351
g0
(g85
g2
Ntp352
Rp353
(dp354
g14
I00
sg32
I01
sg15
I01
sS'idName'
p355
g0
(g101
g2
Ntp356
Rp357
(dp358
g14
I00
sg32
I01
sg105
S'cutBasedElectronHLTPreselection-Summer16-V1'
p359
sg15
I00
sbsS'cutFlow'
p360
g0
(g83
g20
(lp361
g0
(g85
g2
Ntp362
Rp363
(dp364
g14
I00
sg32
I01
sg15
I00
sS'cutName'
p365
g0
(g101
g2
Ntp366
Rp367
(dp368
g14
I00
sg32
I01
sg105
S'MinPtCut'
p369
sg15
I00
sbsS'needsAdditionalProducts'
p370
g0
(g321
g2
Ntp371
Rp372
(dp373
g14
I00
sg32
I01
sg105
I00
sg15
I00
sbsS'isIgnored'
p374
g0
(g321
g2
Ntp375
Rp376
(dp377
g14
I00
sg32
I01
sg105
I00
sg15
I00
sbsg11
(lp378
g370
aS'minPt'
p379
ag365
ag374
asg379
g0
(cFWCore.ParameterSet.Types
double
p380
g2
Ntp381
Rp382
(dp383
g14
I00
sg32
I01
sg105
F5.0
sg15
I00
sbsbag0
(g85
g2
Ntp384
Rp385
(dp386
g14
I00
sg32
I01
sg15
I00
sg365
g0
(g101
g2
Ntp387
Rp388
(dp389
g14
I00
sg32
I01
sg105
S'GsfEleSCEtaMultiRangeCut'
p390
sg15
I00
sbsg370
g0
(g321
g2
Ntp391
Rp392
(dp393
g14
I00
sg32
I01
sg105
I00
sg15
I00
sbsg374
g0
(g321
g2
Ntp394
Rp395
(dp396
g14
I00
sg32
I01
sg105
I00
sg15
I00
sbsS'allowedEtaRanges'
p397
g0
(g83
g20
(lp398
g0
(g85
g2
Ntp399
Rp400
(dp401
g14
I00
sg32
I01
sg15
I00
sS'maxEta'
p402
g0
(g380
g2
Ntp403
Rp404
(dp405
g14
I00
sg32
I01
sg105
F1.479
sg15
I00
sbsS'minEta'
p406
g0
(g380
g2
Ntp407
Rp408
(dp409
g14
I00
sg32
I01
sg105
F0.0
sg15
I00
sbsg11
(lp410
g402
ag406
asbag0
(g85
g2
Ntp411
Rp412
(dp413
g14
I00
sg32
I01
sg15
I00
sg402
g0
(g380
g2
Ntp414
Rp415
(dp416
g14
I00
sg32
I01
sg105
F2.5
sg15
I00
sbsg406
g0
(g380
g2
Ntp417
Rp418
(dp419
g14
I00
sg32
I01
sg105
F1.479
sg15
I00
sbsg11
(lp420
g402
ag406
asbatp421
Rp422
(dp423
g14
I00
sg32
I01
sg15
I00
sg33
I1
sbsg11
(lp424
g370
aS'useAbsEta'
p425
ag365
ag397
ag374
asg425
g0
(g321
g2
Ntp426
Rp427
(dp428
g14
I00
sg32
I01
sg105
I01
sg15
I00
sbsbag0
(g85
g2
Ntp429
Rp430
(dp431
g14
I00
sg32
I01
sg15
I00
sg365
g0
(g101
g2
Ntp432
Rp433
(dp434
g14
I00
sg32
I01
sg105
S'GsfEleFull5x5SigmaIEtaIEtaCut'
p435
sg15
I00
sbsS'barrelCutOff'
p436
g0
(g380
g2
Ntp437
Rp438
(dp439
g14
I00
sg32
I01
sg105
F1.479
sg15
I00
sbsg370
g0
(g321
g2
Ntp440
Rp441
(dp442
g14
I00
sg32
I01
sg105
I00
sg15
I00
sbsS'full5x5SigmaIEtaIEtaCutValueEB'
p443
g0
(g380
g2
Ntp444
Rp445
(dp446
g14
I00
sg32
I01
sg105
F0.011
sg15
I00
sbsg11
(lp447
g365
ag436
ag370
ag374
aS'full5x5SigmaIEtaIEtaCutValueEE'
p448
ag443
asg448
g0
(g380
g2
Ntp449
Rp450
(dp451
g14
I00
sg32
I01
sg105
F0.031
sg15
I00
sbsg374
g0
(g321
g2
Ntp452
Rp453
(dp454
g14
I00
sg32
I01
sg105
I00
sg15
I00
sbsbag0
(g85
g2
Ntp455
Rp456
(dp457
g14
I00
sg32
I01
sg15
I00
sg365
g0
(g101
g2
Ntp458
Rp459
(dp460
g14
I00
sg32
I01
sg105
S'GsfEleDEtaInSeedCut'
p461
sg15
I00
sbsg436
g0
(g380
g2
Ntp462
Rp463
(dp464
g14
I00
sg32
I01
sg105
F1.479
sg15
I00
sbsS'dEtaInSeedCutValueEB'
p465
g0
(g380
g2
Ntp466
Rp467
(dp468
g14
I00
sg32
I01
sg105
F0.004
sg15
I00
sbsg370
g0
(g321
g2
Ntp469
Rp470
(dp471
g14
I00
sg32
I01
sg105
I00
sg15
I00
sbsS'dEtaInSeedCutValueEE'
p472
g0
(g380
g2
Ntp473
Rp474
(dp475
g14
I00
sg32
I01
sg105
F1e+30
sg15
I00
sbsg11
(lp476
g365
ag436
ag465
ag370
ag472
ag374
asg374
g0
(g321
g2
Ntp477
Rp478
(dp479
g14
I00
sg32
I01
sg105
I00
sg15
I00
sbsbag0
(g85
g2
Ntp480
Rp481
(dp482
g14
I00
sg32
I01
sg15
I00
sg365
g0
(g101
g2
Ntp483
Rp484
(dp485
g14
I00
sg32
I01
sg105
S'GsfEleDPhiInCut'
p486
sg15
I00
sbsg370
g0
(g321
g2
Ntp487
Rp488
(dp489
g14
I00
sg32
I01
sg105
I00
sg15
I00
sbsS'dPhiInCutValueEB'
p490
g0
(g380
g2
Ntp491
Rp492
(dp493
g14
I00
sg32
I01
sg105
F0.02
sg15
I00
sbsg436
g0
(g380
g2
Ntp494
Rp495
(dp496
g14
I00
sg32
I01
sg105
F1.479
sg15
I00
sbsS'dPhiInCutValueEE'
p497
g0
(g380
g2
Ntp498
Rp499
(dp500
g14
I00
sg32
I01
sg105
F1e+30
sg15
I00
sbsg11
(lp501
g365
ag370
ag490
ag436
ag497
ag374
asg374
g0
(g321
g2
Ntp502
Rp503
(dp504
g14
I00
sg32
I01
sg105
I00
sg15
I00
sbsbag0
(g85
g2
Ntp505
Rp506
(dp507
g14
I00
sg32
I01
sg15
I00
sg365
g0
(g101
g2
Ntp508
Rp509
(dp510
g14
I00
sg32
I01
sg105
S'GsfEleHadronicOverEMCut'
p511
sg15
I00
sbsg436
g0
(g380
g2
Ntp512
Rp513
(dp514
g14
I00
sg32
I01
sg105
F1.479
sg15
I00
sbsg370
g0
(g321
g2
Ntp515
Rp516
(dp517
g14
I00
sg32
I01
sg105
I00
sg15
I00
sbsS'hadronicOverEMCutValueEE'
p518
g0
(g380
g2
Ntp519
Rp520
(dp521
g14
I00
sg32
I01
sg105
F0.065
sg15
I00
sbsS'hadronicOverEMCutValueEB'
p522
g0
(g380
g2
Ntp523
Rp524
(dp525
g14
I00
sg32
I01
sg105
F0.06
sg15
I00
sbsg11
(lp526
g365
ag436
ag370
ag518
ag522
ag374
asg374
g0
(g321
g2
Ntp527
Rp528
(dp529
g14
I00
sg32
I01
sg105
I00
sg15
I00
sbsbag0
(g85
g2
Ntp530
Rp531
(dp532
g14
I00
sg32
I01
sg15
I00
sg365
g0
(g101
g2
Ntp533
Rp534
(dp535
g14
I00
sg32
I01
sg105
S'GsfEleEInverseMinusPInverseCut'
p536
sg15
I00
sbsg436
g0
(g380
g2
Ntp537
Rp538
(dp539
g14
I00
sg32
I01
sg105
F1.479
sg15
I00
sbsg370
g0
(g321
g2
Ntp540
Rp541
(dp542
g14
I00
sg32
I01
sg105
I00
sg15
I00
sbsS'eInverseMinusPInverseCutValueEB'
p543
g0
(g380
g2
Ntp544
Rp545
(dp546
g14
I00
sg32
I01
sg105
F0.013
sg15
I00
sbsS'eInverseMinusPInverseCutValueEE'
p547
g0
(g380
g2
Ntp548
Rp549
(dp550
g14
I00
sg32
I01
sg105
F0.013
sg15
I00
sbsg11
(lp551
g365
ag436
ag370
ag543
ag547
ag374
asg374
g0
(g321
g2
Ntp552
Rp553
(dp554
g14
I00
sg32
I01
sg105
I00
sg15
I00
sbsbag0
(g85
g2
Ntp555
Rp556
(dp557
g14
I00
sg32
I01
sg15
I00
sg365
g0
(g101
g2
Ntp558
Rp559
(dp560
g14
I00
sg32
I01
sg105
S'GsfEleCalPFClusterIsoCut'
p561
sg15
I00
sbsg436
g0
(g380
g2
Ntp562
Rp563
(dp564
g14
I00
sg32
I01
sg105
F1.479
sg15
I00
sbsS'isoType'
p565
g0
(cFWCore.ParameterSet.Types
int32
p566
g2
Ntp567
Rp568
(dp569
g14
I00
sg32
I01
sg105
I0
sg15
I00
sbsS'isoCutEELowPt'
p570
g0
(g380
g2
Ntp571
Rp572
(dp573
g14
I00
sg32
I01
sg105
F0.12
sg15
I00
sbsS'ptCutOff'
p574
g0
(g380
g2
Ntp575
Rp576
(dp577
g14
I00
sg32
I01
sg105
F20.0
sg15
I00
sbsS'isoCutEEHighPt'
p578
g0
(g380
g2
Ntp579
Rp580
(dp581
g14
I00
sg32
I01
sg105
F0.12
sg15
I00
sbsS'isoCutEBHighPt'
p582
g0
(g380
g2
Ntp583
Rp584
(dp585
g14
I00
sg32
I01
sg105
F0.16
sg15
I00
sbsg370
g0
(g321
g2
Ntp586
Rp587
(dp588
g14
I00
sg32
I01
sg105
I01
sg15
I00
sbsS'rho'
p589
g0
(g68
g2
Ntp590
Rp591
(dp592
g14
I00
sg32
I01
sg15
I00
sg72
S'fixedGridRhoFastjetCentralCalo'
p593
sg74
g77
sg76
g77
sbsg11
(lp594
g365
ag436
ag565
ag570
ag574
ag578
ag582
ag370
ag589
aS'effAreasConfigFile'
p595
aS'isRelativeIso'
p596
ag374
aS'isoCutEBLowPt'
p597
asg596
g0
(g321
g2
Ntp598
Rp599
(dp600
g14
I00
sg32
I01
sg105
I01
sg15
I00
sbsg595
g0
(cFWCore.ParameterSet.Types
FileInPath
p601
g2
Ntp602
Rp603
(dp604
g14
I00
sg32
I01
sg105
S'RecoEgamma/ElectronIdentification/data/Summer16/effAreaElectrons_HLT_ecalPFClusterIso.txt'
p605
sg15
I00
sbsg374
g0
(g321
g2
Ntp606
Rp607
(dp608
g14
I00
sg32
I01
sg105
I00
sg15
I00
sbsg597
g0
(g380
g2
Ntp609
Rp610
(dp611
g14
I00
sg32
I01
sg105
F0.16
sg15
I00
sbsbag0
(g85
g2
Ntp612
Rp613
(dp614
g14
I00
sg32
I01
sg15
I00
sg365
g0
(g101
g2
Ntp615
Rp616
(dp617
g14
I00
sg32
I01
sg105
g561
sg15
I00
sbsg436
g0
(g380
g2
Ntp618
Rp619
(dp620
g14
I00
sg32
I01
sg105
F1.479
sg15
I00
sbsg565
g0
(g566
g2
Ntp621
Rp622
(dp623
g14
I00
sg32
I01
sg105
I1
sg15
I00
sbsg570
g0
(g380
g2
Ntp624
Rp625
(dp626
g14
I00
sg32
I01
sg105
F0.12
sg15
I00
sbsg574
g0
(g380
g2
Ntp627
Rp628
(dp629
g14
I00
sg32
I01
sg105
F20.0
sg15
I00
sbsg578
g0
(g380
g2
Ntp630
Rp631
(dp632
g14
I00
sg32
I01
sg105
F0.12
sg15
I00
sbsg582
g0
(g380
g2
Ntp633
Rp634
(dp635
g14
I00
sg32
I01
sg105
F0.12
sg15
I00
sbsg370
g0
(g321
g2
Ntp636
Rp637
(dp638
g14
I00
sg32
I01
sg105
I01
sg15
I00
sbsg589
g0
(g68
g2
Ntp639
Rp640
(dp641
g14
I00
sg32
I01
sg15
I00
sg72
g593
sg74
g77
sg76
g77
sbsg11
(lp642
g365
ag436
ag565
ag570
ag574
ag578
ag582
ag370
ag589
ag595
ag596
ag374
ag597
asg596
g0
(g321
g2
Ntp643
Rp644
(dp645
g14
I00
sg32
I01
sg105
I01
sg15
I00
sbsg595
g0
(g601
g2
Ntp646
Rp647
(dp648
g14
I00
sg32
I01
sg105
S'RecoEgamma/ElectronIdentification/data/Summer16/effAreaElectrons_HLT_hcalPFClusterIso.txt'
p649
sg15
I00
sbsg374
g0
(g321
g2
Ntp650
Rp651
(dp652
g14
I00
sg32
I01
sg105
I00
sg15
I00
sbsg597
g0
(g380
g2
Ntp653
Rp654
(dp655
g14
I00
sg32
I01
sg105
F0.12
sg15
I00
sbsbag0
(g85
g2
Ntp656
Rp657
(dp658
g14
I00
sg32
I01
sg15
I00
sg365
g0
(g101
g2
Ntp659
Rp660
(dp661
g14
I00
sg32
I01
sg105
S'GsfEleTrkPtIsoCut'
p662
sg15
I00
sbsg370
g0
(g321
g2
Ntp663
Rp664
(dp665
g14
I00
sg32
I01
sg105
I00
sg15
I00
sbsg374
g0
(g321
g2
Ntp666
Rp667
(dp668
g14
I00
sg32
I01
sg105
I00
sg15
I00
sbsS'constTermEE'
p669
g0
(g380
g2
Ntp670
Rp671
(dp672
g14
I00
sg32
I01
sg105
F0.0
sg15
I00
sbsS'slopeStartEE'
p673
g0
(g380
g2
Ntp674
Rp675
(dp676
g14
I00
sg32
I01
sg105
F0.0
sg15
I00
sbsS'constTermEB'
p677
g0
(g380
g2
Ntp678
Rp679
(dp680
g14
I00
sg32
I01
sg105
F0.0
sg15
I00
sbsS'slopeStartEB'
p681
g0
(g380
g2
Ntp682
Rp683
(dp684
g14
I00
sg32
I01
sg105
F0.0
sg15
I00
sbsg11
(lp685
g365
ag370
ag374
ag669
ag677
aS'slopeTermEB'
p686
ag673
aS'slopeTermEE'
p687
ag681
asg686
g0
(g380
g2
Ntp688
Rp689
(dp690
g14
I00
sg32
I01
sg105
F0.08
sg15
I00
sbsg687
g0
(g380
g2
Ntp691
Rp692
(dp693
g14
I00
sg32
I01
sg105
F0.08
sg15
I00
sbsbag0
(g85
g2
Ntp694
Rp695
(dp696
g14
I00
sg32
I01
sg15
I00
sg365
g0
(g101
g2
Ntp697
Rp698
(dp699
g14
I00
sg32
I01
sg105
S'GsfEleNormalizedGsfChi2Cut'
p700
sg15
I00
sbsg436
g0
(g380
g2
Ntp701
Rp702
(dp703
g14
I00
sg32
I01
sg105
F1.479
sg15
I00
sbsS'normalizedGsfChi2CutValueEB'
p704
g0
(g380
g2
Ntp705
Rp706
(dp707
g14
I00
sg32
I01
sg105
F1e+30
sg15
I00
sbsg370
g0
(g321
g2
Ntp708
Rp709
(dp710
g14
I00
sg32
I01
sg105
I00
sg15
I00
sbsS'normalizedGsfChi2CutValueEE'
p711
g0
(g380
g2
Ntp712
Rp713
(dp714
g14
I00
sg32
I01
sg105
F3.0
sg15
I00
sbsg11
(lp715
g365
ag436
ag704
ag370
ag711
ag374
asg374
g0
(g321
g2
Ntp716
Rp717
(dp718
g14
I00
sg32
I01
sg105
I00
sg15
I00
sbsbatp719
Rp720
(dp721
g14
I00
sg32
I01
sg15
I00
sg33
I1
sbsg11
(lp722
g355
ag360
asbsg15
I00
sS'idMD5'
p723
g0
(g101
g2
Ntp724
Rp725
(dp726
g14
I00
sg32
I01
sg105
S'aef5f00cc25a63b44192c6fc449f7dc0'
p727
sg15
I00
sbsS'isPOGApproved'
p728
g0
(g321
g2
Ntp729
Rp730
(dp731
g14
I00
sg32
I00
sg105
I01
sg15
I00
sbsg11
(lp732
g351
ag723
ag728
asbag0
(g85
g2
Ntp733
Rp734
(dp735
g14
I00
sg32
I01
sg351
g0
(g85
g2
Ntp736
Rp737
(dp738
g14
I00
sg32
I01
sg15
I01
sg355
g0
(g101
g2
Ntp739
Rp740
(dp741
g14
I00
sg32
I01
sg105
S'cutBasedElectronID-Summer16-80X-V1-loose'
p742
sg15
I00
sbsg360
g0
(g83
g20
(lp743
g0
(g85
g2
Ntp744
Rp745
(dp746
g14
I00
sg32
I01
sg15
I00
sg365
g0
(g101
g2
Ntp747
Rp748
(dp749
g14
I00
sg32
I01
sg105
g369
sg15
I00
sbsg370
g0
(g321
g2
Ntp750
Rp751
(dp752
g14
I00
sg32
I01
sg105
I00
sg15
I00
sbsg374
g0
(g321
g2
Ntp753
Rp754
(dp755
g14
I00
sg32
I01
sg105
I00
sg15
I00
sbsg11
(lp756
g370
ag379
ag365
ag374
asg379
g0
(g380
g2
Ntp757
Rp758
(dp759
g14
I00
sg32
I01
sg105
F5.0
sg15
I00
sbsbag0
(g85
g2
Ntp760
Rp761
(dp762
g14
I00
sg32
I01
sg15
I00
sg365
g0
(g101
g2
Ntp763
Rp764
(dp765
g14
I00
sg32
I01
sg105
g390
sg15
I00
sbsg370
g0
(g321
g2
Ntp766
Rp767
(dp768
g14
I00
sg32
I01
sg105
I00
sg15
I00
sbsg374
g0
(g321
g2
Ntp769
Rp770
(dp771
g14
I00
sg32
I01
sg105
I00
sg15
I00
sbsg397
g0
(g83
g20
(lp772
g0
(g85
g2
Ntp773
Rp774
(dp775
g14
I00
sg32
I01
sg15
I00
sg402
g0
(g380
g2
Ntp776
Rp777
(dp778
g14
I00
sg32
I01
sg105
F1.479
sg15
I00
sbsg406
g0
(g380
g2
Ntp779
Rp780
(dp781
g14
I00
sg32
I01
sg105
F0.0
sg15
I00
sbsg11
(lp782
g402
ag406
asbag0
(g85
g2
Ntp783
Rp784
(dp785
g14
I00
sg32
I01
sg15
I00
sg402
g0
(g380
g2
Ntp786
Rp787
(dp788
g14
I00
sg32
I01
sg105
F2.5
sg15
I00
sbsg406
g0
(g380
g2
Ntp789
Rp790
(dp791
g14
I00
sg32
I01
sg105
F1.479
sg15
I00
sbsg11
(lp792
g402
ag406
asbatp793
Rp794
(dp795
g14
I00
sg32
I01
sg15
I00
sg33
I1
sbsg11
(lp796
g370
ag425
ag365
ag397
ag374
asg425
g0
(g321
g2
Ntp797
Rp798
(dp799
g14
I00
sg32
I01
sg105
I01
sg15
I00
sbsbag0
(g85
g2
Ntp800
Rp801
(dp802
g14
I00
sg32
I01
sg15
I00
sg365
g0
(g101
g2
Ntp803
Rp804
(dp805
g14
I00
sg32
I01
sg105
g461
sg15
I00
sbsg436
g0
(g380
g2
Ntp806
Rp807
(dp808
g14
I00
sg32
I01
sg105
F1.479
sg15
I00
sbsg465
g0
(g380
g2
Ntp809
Rp810
(dp811
g14
I00
sg32
I01
sg105
F0.00477
sg15
I00
sbsg370
g0
(g321
g2
Ntp812
Rp813
(dp814
g14
I00
sg32
I01
sg105
I00
sg15
I00
sbsg472
g0
(g380
g2
Ntp815
Rp816
(dp817
g14
I00
sg32
I01
sg105
F0.00868
sg15
I00
sbsg11
(lp818
g365
ag436
ag465
ag370
ag472
ag374
asg374
g0
(g321
g2
Ntp819
Rp820
(dp821
g14
I00
sg32
I01
sg105
I00
sg15
I00
sbsbag0
(g85
g2
Ntp822
Rp823
(dp824
g14
I00
sg32
I01
sg15
I00
sg365
g0
(g101
g2
Ntp825
Rp826
(dp827
g14
I00
sg32
I01
sg105
g486
sg15
I00
sbsg370
g0
(g321
g2
Ntp828
Rp829
(dp830
g14
I00
sg32
I01
sg105
I00
sg15
I00
sbsg490
g0
(g380
g2
Ntp831
Rp832
(dp833
g14
I00
sg32
I01
sg105
F0.222
sg15
I00
sbsg436
g0
(g380
g2
Ntp834
Rp835
(dp836
g14
I00
sg32
I01
sg105
F1.479
sg15
I00
sbsg497
g0
(g380
g2
Ntp837
Rp838
(dp839
g14
I00
sg32
I01
sg105
F0.213
sg15
I00
sbsg11
(lp840
g365
ag370
ag490
ag436
ag497
ag374
asg374
g0
(g321
g2
Ntp841
Rp842
(dp843
g14
I00
sg32
I01
sg105
I00
sg15
I00
sbsbag0
(g85
g2
Ntp844
Rp845
(dp846
g14
I00
sg32
I01
sg15
I00
sg365
g0
(g101
g2
Ntp847
Rp848
(dp849
g14
I00
sg32
I01
sg105
g435
sg15
I00
sbsg436
g0
(g380
g2
Ntp850
Rp851
(dp852
g14
I00
sg32
I01
sg105
F1.479
sg15
I00
sbsg370
g0
(g321
g2
Ntp853
Rp854
(dp855
g14
I00
sg32
I01
sg105
I00
sg15
I00
sbsg443
g0
(g380
g2
Ntp856
Rp857
(dp858
g14
I00
sg32
I01
sg105
F0.011
sg15
I00
sbsg11
(lp859
g365
ag436
ag370
ag374
ag448
ag443
asg448
g0
(g380
g2
Ntp860
Rp861
(dp862
g14
I00
sg32
I01
sg105
F0.0314
sg15
I00
sbsg374
g0
(g321
g2
Ntp863
Rp864
(dp865
g14
I00
sg32
I01
sg105
I00
sg15
I00
sbsbag0
(g85
g2
Ntp866
Rp867
(dp868
g14
I00
sg32
I01
sg15
I00
sg365
g0
(g101
g2
Ntp869
Rp870
(dp871
g14
I00
sg32
I01
sg105
g511
sg15
I00
sbsg436
g0
(g380
g2
Ntp872
Rp873
(dp874
g14
I00
sg32
I01
sg105
F1.479
sg15
I00
sbsg370
g0
(g321
g2
Ntp875
Rp876
(dp877
g14
I00
sg32
I01
sg105
I00
sg15
I00
sbsg518
g0
(g380
g2
Ntp878
Rp879
(dp880
g14
I00
sg32
I01
sg105
F0.101
sg15
I00
sbsg522
g0
(g380
g2
Ntp881
Rp882
(dp883
g14
I00
sg32
I01
sg105
F0.298
sg15
I00
sbsg11
(lp884
g365
ag436
ag370
ag518
ag522
ag374
asg374
g0
(g321
g2
Ntp885
Rp886
(dp887
g14
I00
sg32
I01
sg105
I00
sg15
I00
sbsbag0
(g85
g2
Ntp888
Rp889
(dp890
g14
I00
sg32
I01
sg15
I00
sg365
g0
(g101
g2
Ntp891
Rp892
(dp893
g14
I00
sg32
I01
sg105
g536
sg15
I00
sbsg436
g0
(g380
g2
Ntp894
Rp895
(dp896
g14
I00
sg32
I01
sg105
F1.479
sg15
I00
sbsg370
g0
(g321
g2
Ntp897
Rp898
(dp899
g14
I00
sg32
I01
sg105
I00
sg15
I00
sbsg543
g0
(g380
g2
Ntp900
Rp901
(dp902
g14
I00
sg32
I01
sg105
F0.241
sg15
I00
sbsg547
g0
(g380
g2
Ntp903
Rp904
(dp905
g14
I00
sg32
I01
sg105
F0.14
sg15
I00
sbsg11
(lp906
g365
ag436
ag370
ag543
ag547
ag374
asg374
g0
(g321
g2
Ntp907
Rp908
(dp909
g14
I00
sg32
I01
sg105
I00
sg15
I00
sbsbag0
(g85
g2
Ntp910
Rp911
(dp912
g14
I00
sg32
I01
sg15
I00
sg365
g0
(g101
g2
Ntp913
Rp914
(dp915
g14
I00
sg32
I01
sg105
S'GsfEleEffAreaPFIsoCut'
p916
sg15
I00
sbsg436
g0
(g380
g2
Ntp917
Rp918
(dp919
g14
I00
sg32
I01
sg105
F1.479
sg15
I00
sbsg570
g0
(g380
g2
Ntp920
Rp921
(dp922
g14
I00
sg32
I01
sg105
F0.107
sg15
I00
sbsg574
g0
(g380
g2
Ntp923
Rp924
(dp925
g14
I00
sg32
I01
sg105
F20.0
sg15
I00
sbsg578
g0
(g380
g2
Ntp926
Rp927
(dp928
g14
I00
sg32
I01
sg105
F0.107
sg15
I00
sbsg582
g0
(g380
g2
Ntp929
Rp930
(dp931
g14
I00
sg32
I01
sg105
F0.0994
sg15
I00
sbsg370
g0
(g321
g2
Ntp932
Rp933
(dp934
g14
I00
sg32
I01
sg105
I01
sg15
I00
sbsg589
g0
(g68
g2
Ntp935
Rp936
(dp937
g14
I00
sg32
I01
sg15
I00
sg72
S'fixedGridRhoFastjetAll'
p938
sg74
g77
sg76
g77
sbsg11
(lp939
g365
ag436
ag570
ag574
ag578
ag582
ag370
ag589
ag595
ag596
ag374
ag597
asg596
g0
(g321
g2
Ntp940
Rp941
(dp942
g14
I00
sg32
I01
sg105
I01
sg15
I00
sbsg595
g0
(g601
g2
Ntp943
Rp944
(dp945
g14
I00
sg32
I01
sg105
S'RecoEgamma/ElectronIdentification/data/Summer16/effAreaElectrons_cone03_pfNeuHadronsAndPhotons_80X.txt'
p946
sg15
I00
sbsg374
g0
(g321
g2
Ntp947
Rp948
(dp949
g14
I00
sg32
I01
sg105
I00
sg15
I00
sbsg597
g0
(g380
g2
Ntp950
Rp951
(dp952
g14
I00
sg32
I01
sg105
F0.0994
sg15
I00
sbsbag0
(g85
g2
Ntp953
Rp954
(dp955
g14
I00
sg32
I01
sS'beamspotSrc'
p956
g0
(g68
g2
Ntp957
Rp958
(dp959
g14
I00
sg32
I01
sg15
I00
sg72
g121
sg74
g77
sg76
g77
sbsg15
I00
sg365
g0
(g101
g2
Ntp960
Rp961
(dp962
g14
I00
sg32
I01
sg105
S'GsfEleConversionVetoCut'
p963
sg15
I00
sbsg370
g0
(g321
g2
Ntp964
Rp965
(dp966
g14
I00
sg32
I01
sg105
I01
sg15
I00
sbsg374
g0
(g321
g2
Ntp967
Rp968
(dp969
g14
I00
sg32
I01
sg105
I00
sg15
I00
sbsS'conversionSrc'
p970
g0
(g68
g2
Ntp971
Rp972
(dp973
g14
I00
sg32
I01
sg15
I00
sg72
g126
sg74
g77
sg76
g77
sbsS'conversionSrcMiniAOD'
p974
g0
(g68
g2
Ntp975
Rp976
(dp977
g14
I00
sg32
I01
sg15
I00
sg72
S'reducedEgamma'
p978
sg74
g77
sg76
S'reducedConversions'
p979
sbsg11
(lp980
g956
ag365
ag370
ag374
ag974
ag970
asbag0
(g85
g2
Ntp981
Rp982
(dp983
g14
I00
sg32
I01
sg15
I00
sg365
g0
(g101
g2
Ntp984
Rp985
(dp986
g14
I00
sg32
I01
sg105
S'GsfEleMissingHitsCut'
p987
sg15
I00
sbsg436
g0
(g380
g2
Ntp988
Rp989
(dp990
g14
I00
sg32
I01
sg105
F1.479
sg15
I00
sbsg370
g0
(g321
g2
Ntp991
Rp992
(dp993
g14
I00
sg32
I01
sg105
I00
sg15
I00
sbsg11
(lp994
g365
ag436
ag370
aS'maxMissingHitsEE'
p995
aS'maxMissingHitsEB'
p996
ag374
asg995
g0
(cFWCore.ParameterSet.Types
uint32
p997
g2
Ntp998
Rp999
(dp1000
g14
I00
sg32
I01
sg105
I1
sg15
I00
sbsg996
g0
(g997
g2
Ntp1001
Rp1002
(dp1003
g14
I00
sg32
I01
sg105
I1
sg15
I00
sbsg374
g0
(g321
g2
Ntp1004
Rp1005
(dp1006
g14
I00
sg32
I01
sg105
I00
sg15
I00
sbsbatp1007
Rp1008
(dp1009
g14
I00
sg32
I01
sg15
I00
sg33
I1
sbsg11
(lp1010
g355
ag360
asbsg15
I00
sg723
g0
(g101
g2
Ntp1011
Rp1012
(dp1013
g14
I00
sg32
I01
sg105
S'c1c4c739f1ba0791d40168c123183475'
p1014
sg15
I00
sbsg728
g0
(g321
g2
Ntp1015
Rp1016
(dp1017
g14
I00
sg32
I00
sg105
I01
sg15
I00
sbsg11
(lp1018
g351
ag723
ag728
asbag0
(g85
g2
Ntp1019
Rp1020
(dp1021
g14
I00
sg32
I01
sg351
g0
(g85
g2
Ntp1022
Rp1023
(dp1024
g14
I00
sg32
I01
sg15
I01
sg355
g0
(g101
g2
Ntp1025
Rp1026
(dp1027
g14
I00
sg32
I01
sg105
S'cutBasedElectronID-Summer16-80X-V1-medium'
p1028
sg15
I00
sbsg360
g0
(g83
g20
(lp1029
g0
(g85
g2
Ntp1030
Rp1031
(dp1032
g14
I00
sg32
I01
sg15
I00
sg365
g0
(g101
g2
Ntp1033
Rp1034
(dp1035
g14
I00
sg32
I01
sg105
g369
sg15
I00
sbsg370
g0
(g321
g2
Ntp1036
Rp1037
(dp1038
g14
I00
sg32
I01
sg105
I00
sg15
I00
sbsg374
g0
(g321
g2
Ntp1039
Rp1040
(dp1041
g14
I00
sg32
I01
sg105
I00
sg15
I00
sbsg11
(lp1042
g370
ag379
ag365
ag374
asg379
g0
(g380
g2
Ntp1043
Rp1044
(dp1045
g14
I00
sg32
I01
sg105
F5.0
sg15
I00
sbsbag0
(g85
g2
Ntp1046
Rp1047
(dp1048
g14
I00
sg32
I01
sg15
I00
sg365
g0
(g101
g2
Ntp1049
Rp1050
(dp1051
g14
I00
sg32
I01
sg105
g390
sg15
I00
sbsg370
g0
(g321
g2
Ntp1052
Rp1053
(dp1054
g14
I00
sg32
I01
sg105
I00
sg15
I00
sbsg374
g0
(g321
g2
Ntp1055
Rp1056
(dp1057
g14
I00
sg32
I01
sg105
I00
sg15
I00
sbsg397
g0
(g83
g20
(lp1058
g0
(g85
g2
Ntp1059
Rp1060
(dp1061
g14
I00
sg32
I01
sg15
I00
sg402
g0
(g380
g2
Ntp1062
Rp1063
(dp1064
g14
I00
sg32
I01
sg105
F1.479
sg15
I00
sbsg406
g0
(g380
g2
Ntp1065
Rp1066
(dp1067
g14
I00
sg32
I01
sg105
F0.0
sg15
I00
sbsg11
(lp1068
g402
ag406
asbag0
(g85
g2
Ntp1069
Rp1070
(dp1071
g14
I00
sg32
I01
sg15
I00
sg402
g0
(g380
g2
Ntp1072
Rp1073
(dp1074
g14
I00
sg32
I01
sg105
F2.5
sg15
I00
sbsg406
g0
(g380
g2
Ntp1075
Rp1076
(dp1077
g14
I00
sg32
I01
sg105
F1.479
sg15
I00
sbsg11
(lp1078
g402
ag406
asbatp1079
Rp1080
(dp1081
g14
I00
sg32
I01
sg15
I00
sg33
I1
sbsg11
(lp1082
g370
ag425
ag365
ag397
ag374
asg425
g0
(g321
g2
Ntp1083
Rp1084
(dp1085
g14
I00
sg32
I01
sg105
I01
sg15
I00
sbsbag0
(g85
g2
Ntp1086
Rp1087
(dp1088
g14
I00
sg32
I01
sg15
I00
sg365
g0
(g101
g2
Ntp1089
Rp1090
(dp1091
g14
I00
sg32
I01
sg105
g461
sg15
I00
sbsg436
g0
(g380
g2
Ntp1092
Rp1093
(dp1094
g14
I00
sg32
I01
sg105
F1.479
sg15
I00
sbsg465
g0
(g380
g2
Ntp1095
Rp1096
(dp1097
g14
I00
sg32
I01
sg105
F0.00311
sg15
I00
sbsg370
g0
(g321
g2
Ntp1098
Rp1099
(dp1100
g14
I00
sg32
I01
sg105
I00
sg15
I00
sbsg472
g0
(g380
g2
Ntp1101
Rp1102
(dp1103
g14
I00
sg32
I01
sg105
F0.00609
sg15
I00
sbsg11
(lp1104
g365
ag436
ag465
ag370
ag472
ag374
asg374
g0
(g321
g2
Ntp1105
Rp1106
(dp1107
g14
I00
sg32
I01
sg105
I00
sg15
I00
sbsbag0
(g85
g2
Ntp1108
Rp1109
(dp1110
g14
I00
sg32
I01
sg15
I00
sg365
g0
(g101
g2
Ntp1111
Rp1112
(dp1113
g14
I00
sg32
I01
sg105
g486
sg15
I00
sbsg370
g0
(g321
g2
Ntp1114
Rp1115
(dp1116
g14
I00
sg32
I01
sg105
I00
sg15
I00
sbsg490
g0
(g380
g2
Ntp1117
Rp1118
(dp1119
g14
I00
sg32
I01
sg105
F0.103
sg15
I00
sbsg436
g0
(g380
g2
Ntp1120
Rp1121
(dp1122
g14
I00
sg32
I01
sg105
F1.479
sg15
I00
sbsg497
g0
(g380
g2
Ntp1123
Rp1124
(dp1125
g14
I00
sg32
I01
sg105
F0.045
sg15
I00
sbsg11
(lp1126
g365
ag370
ag490
ag436
ag497
ag374
asg374
g0
(g321
g2
Ntp1127
Rp1128
(dp1129
g14
I00
sg32
I01
sg105
I00
sg15
I00
sbsbag0
(g85
g2
Ntp1130
Rp1131
(dp1132
g14
I00
sg32
I01
sg15
I00
sg365
g0
(g101
g2
Ntp1133
Rp1134
(dp1135
g14
I00
sg32
I01
sg105
g435
sg15
I00
sbsg436
g0
(g380
g2
Ntp1136
Rp1137
(dp1138
g14
I00
sg32
I01
sg105
F1.479
sg15
I00
sbsg370
g0
(g321
g2
Ntp1139
Rp1140
(dp1141
g14
I00
sg32
I01
sg105
I00
sg15
I00
sbsg443
g0
(g380
g2
Ntp1142
Rp1143
(dp1144
g14
I00
sg32
I01
sg105
F0.00998
sg15
I00
sbsg11
(lp1145
g365
ag436
ag370
ag374
ag448
ag443
asg448
g0
(g380
g2
Ntp1146
Rp1147
(dp1148
g14
I00
sg32
I01
sg105
F0.0298
sg15
I00
sbsg374
g0
(g321
g2
Ntp1149
Rp1150
(dp1151
g14
I00
sg32
I01
sg105
I00
sg15
I00
sbsbag0
(g85
g2
Ntp1152
Rp1153
(dp1154
g14
I00
sg32
I01
sg15
I00
sg365
g0
(g101
g2
Ntp1155
Rp1156
(dp1157
g14
I00
sg32
I01
sg105
g511
sg15
I00
sbsg436
g0
(g380
g2
Ntp1158
Rp1159
(dp1160
g14
I00
sg32
I01
sg105
F1.479
sg15
I00
sbsg370
g0
(g321
g2
Ntp1161
Rp1162
(dp1163
g14
I00
sg32
I01
sg105
I00
sg15
I00
sbsg518
g0
(g380
g2
Ntp1164
Rp1165
(dp1166
g14
I00
sg32
I01
sg105
F0.0878
sg15
I00
sbsg522
g0
(g380
g2
Ntp1167
Rp1168
(dp1169
g14
I00
sg32
I01
sg105
F0.253
sg15
I00
sbsg11
(lp1170
g365
ag436
ag370
ag518
ag522
ag374
asg374
g0
(g321
g2
Ntp1171
Rp1172
(dp1173
g14
I00
sg32
I01
sg105
I00
sg15
I00
sbsbag0
(g85
g2
Ntp1174
Rp1175
(dp1176
g14
I00
sg32
I01
sg15
I00
sg365
g0
(g101
g2
Ntp1177
Rp1178
(dp1179
g14
I00
sg32
I01
sg105
g536
sg15
I00
sbsg436
g0
(g380
g2
Ntp1180
Rp1181
(dp1182
g14
I00
sg32
I01
sg105
F1.479
sg15
I00
sbsg370
g0
(g321
g2
Ntp1183
Rp1184
(dp1185
g14
I00
sg32
I01
sg105
I00
sg15
I00
sbsg543
g0
(g380
g2
Ntp1186
Rp1187
(dp1188
g14
I00
sg32
I01
sg105
F0.134
sg15
I00
sbsg547
g0
(g380
g2
Ntp1189
Rp1190
(dp1191
g14
I00
sg32
I01
sg105
F0.13
sg15
I00
sbsg11
(lp1192
g365
ag436
ag370
ag543
ag547
ag374
asg374
g0
(g321
g2
Ntp1193
Rp1194
(dp1195
g14
I00
sg32
I01
sg105
I00
sg15
I00
sbsbag0
(g85
g2
Ntp1196
Rp1197
(dp1198
g14
I00
sg32
I01
sg15
I00
sg365
g0
(g101
g2
Ntp1199
Rp1200
(dp1201
g14
I00
sg32
I01
sg105
g916
sg15
I00
sbsg436
g0
(g380
g2
Ntp1202
Rp1203
(dp1204
g14
I00
sg32
I01
sg105
F1.479
sg15
I00
sbsg570
g0
(g380
g2
Ntp1205
Rp1206
(dp1207
g14
I00
sg32
I01
sg105
F0.0821
sg15
I00
sbsg574
g0
(g380
g2
Ntp1208
Rp1209
(dp1210
g14
I00
sg32
I01
sg105
F20.0
sg15
I00
sbsg578
g0
(g380
g2
Ntp1211
Rp1212
(dp1213
g14
I00
sg32
I01
sg105
F0.0821
sg15
I00
sbsg582
g0
(g380
g2
Ntp1214
Rp1215
(dp1216
g14
I00
sg32
I01
sg105
F0.0695
sg15
I00
sbsg370
g0
(g321
g2
Ntp1217
Rp1218
(dp1219
g14
I00
sg32
I01
sg105
I01
sg15
I00
sbsg589
g0
(g68
g2
Ntp1220
Rp1221
(dp1222
g14
I00
sg32
I01
sg15
I00
sg72
g938
sg74
g77
sg76
g77
sbsg11
(lp1223
g365
ag436
ag570
ag574
ag578
ag582
ag370
ag589
ag595
ag596
ag374
ag597
asg596
g0
(g321
g2
Ntp1224
Rp1225
(dp1226
g14
I00
sg32
I01
sg105
I01
sg15
I00
sbsg595
g0
(g601
g2
Ntp1227
Rp1228
(dp1229
g14
I00
sg32
I01
sg105
g946
sg15
I00
sbsg374
g0
(g321
g2
Ntp1230
Rp1231
(dp1232
g14
I00
sg32
I01
sg105
I00
sg15
I00
sbsg597
g0
(g380
g2
Ntp1233
Rp1234
(dp1235
g14
I00
sg32
I01
sg105
F0.0695
sg15
I00
sbsbag0
(g85
g2
Ntp1236
Rp1237
(dp1238
g14
I00
sg32
I01
sg956
g0
(g68
g2
Ntp1239
Rp1240
(dp1241
g14
I00
sg32
I01
sg15
I00
sg72
g121
sg74
g77
sg76
g77
sbsg15
I00
sg365
g0
(g101
g2
Ntp1242
Rp1243
(dp1244
g14
I00
sg32
I01
sg105
g963
sg15
I00
sbsg370
g0
(g321
g2
Ntp1245
Rp1246
(dp1247
g14
I00
sg32
I01
sg105
I01
sg15
I00
sbsg374
g0
(g321
g2
Ntp1248
Rp1249
(dp1250
g14
I00
sg32
I01
sg105
I00
sg15
I00
sbsg970
g0
(g68
g2
Ntp1251
Rp1252
(dp1253
g14
I00
sg32
I01
sg15
I00
sg72
g126
sg74
g77
sg76
g77
sbsg974
g0
(g68
g2
Ntp1254
Rp1255
(dp1256
g14
I00
sg32
I01
sg15
I00
sg72
S'reducedEgamma'
p1257
sg74
g77
sg76
S'reducedConversions'
p1258
sbsg11
(lp1259
g956
ag365
ag370
ag374
ag974
ag970
asbag0
(g85
g2
Ntp1260
Rp1261
(dp1262
g14
I00
sg32
I01
sg15
I00
sg365
g0
(g101
g2
Ntp1263
Rp1264
(dp1265
g14
I00
sg32
I01
sg105
g987
sg15
I00
sbsg436
g0
(g380
g2
Ntp1266
Rp1267
(dp1268
g14
I00
sg32
I01
sg105
F1.479
sg15
I00
sbsg370
g0
(g321
g2
Ntp1269
Rp1270
(dp1271
g14
I00
sg32
I01
sg105
I00
sg15
I00
sbsg11
(lp1272
g365
ag436
ag370
ag995
ag996
ag374
asg995
g0
(g997
g2
Ntp1273
Rp1274
(dp1275
g14
I00
sg32
I01
sg105
I1
sg15
I00
sbsg996
g0
(g997
g2
Ntp1276
Rp1277
(dp1278
g14
I00
sg32
I01
sg105
I1
sg15
I00
sbsg374
g0
(g321
g2
Ntp1279
Rp1280
(dp1281
g14
I00
sg32
I01
sg105
I00
sg15
I00
sbsbatp1282
Rp1283
(dp1284
g14
I00
sg32
I01
sg15
I00
sg33
I1
sbsg11
(lp1285
g355
ag360
asbsg15
I00
sg723
g0
(g101
g2
Ntp1286
Rp1287
(dp1288
g14
I00
sg32
I01
sg105
S'71b43f74a27d2fd3d27416afd22e8692'
p1289
sg15
I00
sbsg728
g0
(g321
g2
Ntp1290
Rp1291
(dp1292
g14
I00
sg32
I00
sg105
I01
sg15
I00
sbsg11
(lp1293
g351
ag723
ag728
asbag0
(g85
g2
Ntp1294
Rp1295
(dp1296
g14
I00
sg32
I01
sg351
g0
(g85
g2
Ntp1297
Rp1298
(dp1299
g14
I00
sg32
I01
sg15
I01
sg355
g0
(g101
g2
Ntp1300
Rp1301
(dp1302
g14
I00
sg32
I01
sg105
S'cutBasedElectronID-Summer16-80X-V1-tight'
p1303
sg15
I00
sbsg360
g0
(g83
g20
(lp1304
g0
(g85
g2
Ntp1305
Rp1306
(dp1307
g14
I00
sg32
I01
sg15
I00
sg365
g0
(g101
g2
Ntp1308
Rp1309
(dp1310
g14
I00
sg32
I01
sg105
g369
sg15
I00
sbsg370
g0
(g321
g2
Ntp1311
Rp1312
(dp1313
g14
I00
sg32
I01
sg105
I00
sg15
I00
sbsg374
g0
(g321
g2
Ntp1314
Rp1315
(dp1316
g14
I00
sg32
I01
sg105
I00
sg15
I00
sbsg11
(lp1317
g370
ag379
ag365
ag374
asg379
g0
(g380
g2
Ntp1318
Rp1319
(dp1320
g14
I00
sg32
I01
sg105
F5.0
sg15
I00
sbsbag0
(g85
g2
Ntp1321
Rp1322
(dp1323
g14
I00
sg32
I01
sg15
I00
sg365
g0
(g101
g2
Ntp1324
Rp1325
(dp1326
g14
I00
sg32
I01
sg105
g390
sg15
I00
sbsg370
g0
(g321
g2
Ntp1327
Rp1328
(dp1329
g14
I00
sg32
I01
sg105
I00
sg15
I00
sbsg374
g0
(g321
g2
Ntp1330
Rp1331
(dp1332
g14
I00
sg32
I01
sg105
I00
sg15
I00
sbsg397
g0
(g83
g20
(lp1333
g0
(g85
g2
Ntp1334
Rp1335
(dp1336
g14
I00
sg32
I01
sg15
I00
sg402
g0
(g380
g2
Ntp1337
Rp1338
(dp1339
g14
I00
sg32
I01
sg105
F1.479
sg15
I00
sbsg406
g0
(g380
g2
Ntp1340
Rp1341
(dp1342
g14
I00
sg32
I01
sg105
F0.0
sg15
I00
sbsg11
(lp1343
g402
ag406
asbag0
(g85
g2
Ntp1344
Rp1345
(dp1346
g14
I00
sg32
I01
sg15
I00
sg402
g0
(g380
g2
Ntp1347
Rp1348
(dp1349
g14
I00
sg32
I01
sg105
F2.5
sg15
I00
sbsg406
g0
(g380
g2
Ntp1350
Rp1351
(dp1352
g14
I00
sg32
I01
sg105
F1.479
sg15
I00
sbsg11
(lp1353
g402
ag406
asbatp1354
Rp1355
(dp1356
g14
I00
sg32
I01
sg15
I00
sg33
I1
sbsg11
(lp1357
g370
ag425
ag365
ag397
ag374
asg425
g0
(g321
g2
Ntp1358
Rp1359
(dp1360
g14
I00
sg32
I01
sg105
I01
sg15
I00
sbsbag0
(g85
g2
Ntp1361
Rp1362
(dp1363
g14
I00
sg32
I01
sg15
I00
sg365
g0
(g101
g2
Ntp1364
Rp1365
(dp1366
g14
I00
sg32
I01
sg105
g461
sg15
I00
sbsg436
g0
(g380
g2
Ntp1367
Rp1368
(dp1369
g14
I00
sg32
I01
sg105
F1.479
sg15
I00
sbsg465
g0
(g380
g2
Ntp1370
Rp1371
(dp1372
g14
I00
sg32
I01
sg105
F0.00308
sg15
I00
sbsg370
g0
(g321
g2
Ntp1373
Rp1374
(dp1375
g14
I00
sg32
I01
sg105
I00
sg15
I00
sbsg472
g0
(g380
g2
Ntp1376
Rp1377
(dp1378
g14
I00
sg32
I01
sg105
F0.00605
sg15
I00
sbsg11
(lp1379
g365
ag436
ag465
ag370
ag472
ag374
asg374
g0
(g321
g2
Ntp1380
Rp1381
(dp1382
g14
I00
sg32
I01
sg105
I00
sg15
I00
sbsbag0
(g85
g2
Ntp1383
Rp1384
(dp1385
g14
I00
sg32
I01
sg15
I00
sg365
g0
(g101
g2
Ntp1386
Rp1387
(dp1388
g14
I00
sg32
I01
sg105
g486
sg15
I00
sbsg370
g0
(g321
g2
Ntp1389
Rp1390
(dp1391
g14
I00
sg32
I01
sg105
I00
sg15
I00
sbsg490
g0
(g380
g2
Ntp1392
Rp1393
(dp1394
g14
I00
sg32
I01
sg105
F0.0816
sg15
I00
sbsg436
g0
(g380
g2
Ntp1395
Rp1396
(dp1397
g14
I00
sg32
I01
sg105
F1.479
sg15
I00
sbsg497
g0
(g380
g2
Ntp1398
Rp1399
(dp1400
g14
I00
sg32
I01
sg105
F0.0394
sg15
I00
sbsg11
(lp1401
g365
ag370
ag490
ag436
ag497
ag374
asg374
g0
(g321
g2
Ntp1402
Rp1403
(dp1404
g14
I00
sg32
I01
sg105
I00
sg15
I00
sbsbag0
(g85
g2
Ntp1405
Rp1406
(dp1407
g14
I00
sg32
I01
sg15
I00
sg365
g0
(g101
g2
Ntp1408
Rp1409
(dp1410
g14
I00
sg32
I01
sg105
g435
sg15
I00
sbsg436
g0
(g380
g2
Ntp1411
Rp1412
(dp1413
g14
I00
sg32
I01
sg105
F1.479
sg15
I00
sbsg370
g0
(g321
g2
Ntp1414
Rp1415
(dp1416
g14
I00
sg32
I01
sg105
I00
sg15
I00
sbsg443
g0
(g380
g2
Ntp1417
Rp1418
(dp1419
g14
I00
sg32
I01
sg105
F0.00998
sg15
I00
sbsg11
(lp1420
g365
ag436
ag370
ag374
ag448
ag443
asg448
g0
(g380
g2
Ntp1421
Rp1422
(dp1423
g14
I00
sg32
I01
sg105
F0.0292
sg15
I00
sbsg374
g0
(g321
g2
Ntp1424
Rp1425
(dp1426
g14
I00
sg32
I01
sg105
I00
sg15
I00
sbsbag0
(g85
g2
Ntp1427
Rp1428
(dp1429
g14
I00
sg32
I01
sg15
I00
sg365
g0
(g101
g2
Ntp1430
Rp1431
(dp1432
g14
I00
sg32
I01
sg105
g511
sg15
I00
sbsg436
g0
(g380
g2
Ntp1433
Rp1434
(dp1435
g14
I00
sg32
I01
sg105
F1.479
sg15
I00
sbsg370
g0
(g321
g2
Ntp1436
Rp1437
(dp1438
g14
I00
sg32
I01
sg105
I00
sg15
I00
sbsg518
g0
(g380
g2
Ntp1439
Rp1440
(dp1441
g14
I00
sg32
I01
sg105
F0.0641
sg15
I00
sbsg522
g0
(g380
g2
Ntp1442
Rp1443
(dp1444
g14
I00
sg32
I01
sg105
F0.0414
sg15
I00
sbsg11
(lp1445
g365
ag436
ag370
ag518
ag522
ag374
asg374
g0
(g321
g2
Ntp1446
Rp1447
(dp1448
g14
I00
sg32
I01
sg105
I00
sg15
I00
sbsbag0
(g85
g2
Ntp1449
Rp1450
(dp1451
g14
I00
sg32
I01
sg15
I00
sg365
g0
(g101
g2
Ntp1452
Rp1453
(dp1454
g14
I00
sg32
I01
sg105
g536
sg15
I00
sbsg436
g0
(g380
g2
Ntp1455
Rp1456
(dp1457
g14
I00
sg32
I01
sg105
F1.479
sg15
I00
sbsg370
g0
(g321
g2
Ntp1458
Rp1459
(dp1460
g14
I00
sg32
I01
sg105
I00
sg15
I00
sbsg543
g0
(g380
g2
Ntp1461
Rp1462
(dp1463
g14
I00
sg32
I01
sg105
F0.0129
sg15
I00
sbsg547
g0
(g380
g2
Ntp1464
Rp1465
(dp1466
g14
I00
sg32
I01
sg105
F0.0129
sg15
I00
sbsg11
(lp1467
g365
ag436
ag370
ag543
ag547
ag374
asg374
g0
(g321
g2
Ntp1468
Rp1469
(dp1470
g14
I00
sg32
I01
sg105
I00
sg15
I00
sbsbag0
(g85
g2
Ntp1471
Rp1472
(dp1473
g14
I00
sg32
I01
sg15
I00
sg365
g0
(g101
g2
Ntp1474
Rp1475
(dp1476
g14
I00
sg32
I01
sg105
g916
sg15
I00
sbsg436
g0
(g380
g2
Ntp1477
Rp1478
(dp1479
g14
I00
sg32
I01
sg105
F1.479
sg15
I00
sbsg570
g0
(g380
g2
Ntp1480
Rp1481
(dp1482
g14
I00
sg32
I01
sg105
F0.0571
sg15
I00
sbsg574
g0
(g380
g2
Ntp1483
Rp1484
(dp1485
g14
I00
sg32
I01
sg105
F20.0
sg15
I00
sbsg578
g0
(g380
g2
Ntp1486
Rp1487
(dp1488
g14
I00
sg32
I01
sg105
F0.0571
sg15
I00
sbsg582
g0
(g380
g2
Ntp1489
Rp1490
(dp1491
g14
I00
sg32
I01
sg105
F0.0588
sg15
I00
sbsg370
g0
(g321
g2
Ntp1492
Rp1493
(dp1494
g14
I00
sg32
I01
sg105
I01
sg15
I00
sbsg589
g0
(g68
g2
Ntp1495
Rp1496
(dp1497
g14
I00
sg32
I01
sg15
I00
sg72
g938
sg74
g77
sg76
g77
sbsg11
(lp1498
g365
ag436
ag570
ag574
ag578
ag582
ag370
ag589
ag595
ag596
ag374
ag597
asg596
g0
(g321
g2
Ntp1499
Rp1500
(dp1501
g14
I00
sg32
I01
sg105
I01
sg15
I00
sbsg595
g0
(g601
g2
Ntp1502
Rp1503
(dp1504
g14
I00
sg32
I01
sg105
g946
sg15
I00
sbsg374
g0
(g321
g2
Ntp1505
Rp1506
(dp1507
g14
I00
sg32
I01
sg105
I00
sg15
I00
sbsg597
g0
(g380
g2
Ntp1508
Rp1509
(dp1510
g14
I00
sg32
I01
sg105
F0.0588
sg15
I00
sbsbag0
(g85
g2
Ntp1511
Rp1512
(dp1513
g14
I00
sg32
I01
sg956
g0
(g68
g2
Ntp1514
Rp1515
(dp1516
g14
I00
sg32
I01
sg15
I00
sg72
g121
sg74
g77
sg76
g77
sbsg15
I00
sg365
g0
(g101
g2
Ntp1517
Rp1518
(dp1519
g14
I00
sg32
I01
sg105
g963
sg15
I00
sbsg370
g0
(g321
g2
Ntp1520
Rp1521
(dp1522
g14
I00
sg32
I01
sg105
I01
sg15
I00
sbsg374
g0
(g321
g2
Ntp1523
Rp1524
(dp1525
g14
I00
sg32
I01
sg105
I00
sg15
I00
sbsg970
g0
(g68
g2
Ntp1526
Rp1527
(dp1528
g14
I00
sg32
I01
sg15
I00
sg72
g126
sg74
g77
sg76
g77
sbsg974
g0
(g68
g2
Ntp1529
Rp1530
(dp1531
g14
I00
sg32
I01
sg15
I00
sg72
S'reducedEgamma'
p1532
sg74
g77
sg76
S'reducedConversions'
p1533
sbsg11
(lp1534
g956
ag365
ag370
ag374
ag974
ag970
asbag0
(g85
g2
Ntp1535
Rp1536
(dp1537
g14
I00
sg32
I01
sg15
I00
sg365
g0
(g101
g2
Ntp1538
Rp1539
(dp1540
g14
I00
sg32
I01
sg105
g987
sg15
I00
sbsg436
g0
(g380
g2
Ntp1541
Rp1542
(dp1543
g14
I00
sg32
I01
sg105
F1.479
sg15
I00
sbsg370
g0
(g321
g2
Ntp1544
Rp1545
(dp1546
g14
I00
sg32
I01
sg105
I00
sg15
I00
sbsg11
(lp1547
g365
ag436
ag370
ag995
ag996
ag374
asg995
g0
(g997
g2
Ntp1548
Rp1549
(dp1550
g14
I00
sg32
I01
sg105
I1
sg15
I00
sbsg996
g0
(g997
g2
Ntp1551
Rp1552
(dp1553
g14
I00
sg32
I01
sg105
I1
sg15
I00
sbsg374
g0
(g321
g2
Ntp1554
Rp1555
(dp1556
g14
I00
sg32
I01
sg105
I00
sg15
I00
sbsbatp1557
Rp1558
(dp1559
g14
I00
sg32
I01
sg15
I00
sg33
I1
sbsg11
(lp1560
g355
ag360
asbsg15
I00
sg723
g0
(g101
g2
Ntp1561
Rp1562
(dp1563
g14
I00
sg32
I01
sg105
S'ca2a9db2976d80ba2c13f9bfccdc32f2'
p1564
sg15
I00
sbsg728
g0
(g321
g2
Ntp1565
Rp1566
(dp1567
g14
I00
sg32
I00
sg105
I01
sg15
I00
sbsg11
(lp1568
g351
ag723
ag728
asbag0
(g85
g2
Ntp1569
Rp1570
(dp1571
g14
I00
sg32
I01
sg351
g0
(g85
g2
Ntp1572
Rp1573
(dp1574
g14
I00
sg32
I01
sg15
I01
sg355
g0
(g101
g2
Ntp1575
Rp1576
(dp1577
g14
I00
sg32
I01
sg105
S'cutBasedElectronID-Summer16-80X-V1-veto'
p1578
sg15
I00
sbsg360
g0
(g83
g20
(lp1579
g0
(g85
g2
Ntp1580
Rp1581
(dp1582
g14
I00
sg32
I01
sg15
I00
sg365
g0
(g101
g2
Ntp1583
Rp1584
(dp1585
g14
I00
sg32
I01
sg105
g369
sg15
I00
sbsg370
g0
(g321
g2
Ntp1586
Rp1587
(dp1588
g14
I00
sg32
I01
sg105
I00
sg15
I00
sbsg374
g0
(g321
g2
Ntp1589
Rp1590
(dp1591
g14
I00
sg32
I01
sg105
I00
sg15
I00
sbsg11
(lp1592
g370
ag379
ag365
ag374
asg379
g0
(g380
g2
Ntp1593
Rp1594
(dp1595
g14
I00
sg32
I01
sg105
F5.0
sg15
I00
sbsbag0
(g85
g2
Ntp1596
Rp1597
(dp1598
g14
I00
sg32
I01
sg15
I00
sg365
g0
(g101
g2
Ntp1599
Rp1600
(dp1601
g14
I00
sg32
I01
sg105
g390
sg15
I00
sbsg370
g0
(g321
g2
Ntp1602
Rp1603
(dp1604
g14
I00
sg32
I01
sg105
I00
sg15
I00
sbsg374
g0
(g321
g2
Ntp1605
Rp1606
(dp1607
g14
I00
sg32
I01
sg105
I00
sg15
I00
sbsg397
g0
(g83
g20
(lp1608
g0
(g85
g2
Ntp1609
Rp1610
(dp1611
g14
I00
sg32
I01
sg15
I00
sg402
g0
(g380
g2
Ntp1612
Rp1613
(dp1614
g14
I00
sg32
I01
sg105
F1.479
sg15
I00
sbsg406
g0
(g380
g2
Ntp1615
Rp1616
(dp1617
g14
I00
sg32
I01
sg105
F0.0
sg15
I00
sbsg11
(lp1618
g402
ag406
asbag0
(g85
g2
Ntp1619
Rp1620
(dp1621
g14
I00
sg32
I01
sg15
I00
sg402
g0
(g380
g2
Ntp1622
Rp1623
(dp1624
g14
I00
sg32
I01
sg105
F2.5
sg15
I00
sbsg406
g0
(g380
g2
Ntp1625
Rp1626
(dp1627
g14
I00
sg32
I01
sg105
F1.479
sg15
I00
sbsg11
(lp1628
g402
ag406
asbatp1629
Rp1630
(dp1631
g14
I00
sg32
I01
sg15
I00
sg33
I1
sbsg11
(lp1632
g370
ag425
ag365
ag397
ag374
asg425
g0
(g321
g2
Ntp1633
Rp1634
(dp1635
g14
I00
sg32
I01
sg105
I01
sg15
I00
sbsbag0
(g85
g2
Ntp1636
Rp1637
(dp1638
g14
I00
sg32
I01
sg15
I00
sg365
g0
(g101
g2
Ntp1639
Rp1640
(dp1641
g14
I00
sg32
I01
sg105
g461
sg15
I00
sbsg436
g0
(g380
g2
Ntp1642
Rp1643
(dp1644
g14
I00
sg32
I01
sg105
F1.479
sg15
I00
sbsg465
g0
(g380
g2
Ntp1645
Rp1646
(dp1647
g14
I00
sg32
I01
sg105
F0.00749
sg15
I00
sbsg370
g0
(g321
g2
Ntp1648
Rp1649
(dp1650
g14
I00
sg32
I01
sg105
I00
sg15
I00
sbsg472
g0
(g380
g2
Ntp1651
Rp1652
(dp1653
g14
I00
sg32
I01
sg105
F0.00895
sg15
I00
sbsg11
(lp1654
g365
ag436
ag465
ag370
ag472
ag374
asg374
g0
(g321
g2
Ntp1655
Rp1656
(dp1657
g14
I00
sg32
I01
sg105
I00
sg15
I00
sbsbag0
(g85
g2
Ntp1658
Rp1659
(dp1660
g14
I00
sg32
I01
sg15
I00
sg365
g0
(g101
g2
Ntp1661
Rp1662
(dp1663
g14
I00
sg32
I01
sg105
g486
sg15
I00
sbsg370
g0
(g321
g2
Ntp1664
Rp1665
(dp1666
g14
I00
sg32
I01
sg105
I00
sg15
I00
sbsg490
g0
(g380
g2
Ntp1667
Rp1668
(dp1669
g14
I00
sg32
I01
sg105
F0.228
sg15
I00
sbsg436
g0
(g380
g2
Ntp1670
Rp1671
(dp1672
g14
I00
sg32
I01
sg105
F1.479
sg15
I00
sbsg497
g0
(g380
g2
Ntp1673
Rp1674
(dp1675
g14
I00
sg32
I01
sg105
F0.213
sg15
I00
sbsg11
(lp1676
g365
ag370
ag490
ag436
ag497
ag374
asg374
g0
(g321
g2
Ntp1677
Rp1678
(dp1679
g14
I00
sg32
I01
sg105
I00
sg15
I00
sbsbag0
(g85
g2
Ntp1680
Rp1681
(dp1682
g14
I00
sg32
I01
sg15
I00
sg365
g0
(g101
g2
Ntp1683
Rp1684
(dp1685
g14
I00
sg32
I01
sg105
g435
sg15
I00
sbsg436
g0
(g380
g2
Ntp1686
Rp1687
(dp1688
g14
I00
sg32
I01
sg105
F1.479
sg15
I00
sbsg370
g0
(g321
g2
Ntp1689
Rp1690
(dp1691
g14
I00
sg32
I01
sg105
I00
sg15
I00
sbsg443
g0
(g380
g2
Ntp1692
Rp1693
(dp1694
g14
I00
sg32
I01
sg105
F0.0115
sg15
I00
sbsg11
(lp1695
g365
ag436
ag370
ag374
ag448
ag443
asg448
g0
(g380
g2
Ntp1696
Rp1697
(dp1698
g14
I00
sg32
I01
sg105
F0.037
sg15
I00
sbsg374
g0
(g321
g2
Ntp1699
Rp1700
(dp1701
g14
I00
sg32
I01
sg105
I00
sg15
I00
sbsbag0
(g85
g2
Ntp1702
Rp1703
(dp1704
g14
I00
sg32
I01
sg15
I00
sg365
g0
(g101
g2
Ntp1705
Rp1706
(dp1707
g14
I00
sg32
I01
sg105
g511
sg15
I00
sbsg436
g0
(g380
g2
Ntp1708
Rp1709
(dp1710
g14
I00
sg32
I01
sg105
F1.479
sg15
I00
sbsg370
g0
(g321
g2
Ntp1711
Rp1712
(dp1713
g14
I00
sg32
I01
sg105
I00
sg15
I00
sbsg518
g0
(g380
g2
Ntp1714
Rp1715
(dp1716
g14
I00
sg32
I01
sg105
F0.211
sg15
I00
sbsg522
g0
(g380
g2
Ntp1717
Rp1718
(dp1719
g14
I00
sg32
I01
sg105
F0.356
sg15
I00
sbsg11
(lp1720
g365
ag436
ag370
ag518
ag522
ag374
asg374
g0
(g321
g2
Ntp1721
Rp1722
(dp1723
g14
I00
sg32
I01
sg105
I00
sg15
I00
sbsbag0
(g85
g2
Ntp1724
Rp1725
(dp1726
g14
I00
sg32
I01
sg15
I00
sg365
g0
(g101
g2
Ntp1727
Rp1728
(dp1729
g14
I00
sg32
I01
sg105
g536
sg15
I00
sbsg436
g0
(g380
g2
Ntp1730
Rp1731
(dp1732
g14
I00
sg32
I01
sg105
F1.479
sg15
I00
sbsg370
g0
(g321
g2
Ntp1733
Rp1734
(dp1735
g14
I00
sg32
I01
sg105
I00
sg15
I00
sbsg543
g0
(g380
g2
Ntp1736
Rp1737
(dp1738
g14
I00
sg32
I01
sg105
F0.299
sg15
I00
sbsg547
g0
(g380
g2
Ntp1739
Rp1740
(dp1741
g14
I00
sg32
I01
sg105
F0.15
sg15
I00
sbsg11
(lp1742
g365
ag436
ag370
ag543
ag547
ag374
asg374
g0
(g321
g2
Ntp1743
Rp1744
(dp1745
g14
I00
sg32
I01
sg105
I00
sg15
I00
sbsbag0
(g85
g2
Ntp1746
Rp1747
(dp1748
g14
I00
sg32
I01
sg15
I00
sg365
g0
(g101
g2
Ntp1749
Rp1750
(dp1751
g14
I00
sg32
I01
sg105
g916
sg15
I00
sbsg436
g0
(g380
g2
Ntp1752
Rp1753
(dp1754
g14
I00
sg32
I01
sg105
F1.479
sg15
I00
sbsg570
g0
(g380
g2
Ntp1755
Rp1756
(dp1757
g14
I00
sg32
I01
sg105
F0.159
sg15
I00
sbsg574
g0
(g380
g2
Ntp1758
Rp1759
(dp1760
g14
I00
sg32
I01
sg105
F20.0
sg15
I00
sbsg578
g0
(g380
g2
Ntp1761
Rp1762
(dp1763
g14
I00
sg32
I01
sg105
F0.159
sg15
I00
sbsg582
g0
(g380
g2
Ntp1764
Rp1765
(dp1766
g14
I00
sg32
I01
sg105
F0.175
sg15
I00
sbsg370
g0
(g321
g2
Ntp1767
Rp1768
(dp1769
g14
I00
sg32
I01
sg105
I01
sg15
I00
sbsg589
g0
(g68
g2
Ntp1770
Rp1771
(dp1772
g14
I00
sg32
I01
sg15
I00
sg72
g938
sg74
g77
sg76
g77
sbsg11
(lp1773
g365
ag436
ag570
ag574
ag578
ag582
ag370
ag589
ag595
ag596
ag374
ag597
asg596
g0
(g321
g2
Ntp1774
Rp1775
(dp1776
g14
I00
sg32
I01
sg105
I01
sg15
I00
sbsg595
g0
(g601
g2
Ntp1777
Rp1778
(dp1779
g14
I00
sg32
I01
sg105
g946
sg15
I00
sbsg374
g0
(g321
g2
Ntp1780
Rp1781
(dp1782
g14
I00
sg32
I01
sg105
I00
sg15
I00
sbsg597
g0
(g380
g2
Ntp1783
Rp1784
(dp1785
g14
I00
sg32
I01
sg105
F0.175
sg15
I00
sbsbag0
(g85
g2
Ntp1786
Rp1787
(dp1788
g14
I00
sg32
I01
sg956
g0
(g68
g2
Ntp1789
Rp1790
(dp1791
g14
I00
sg32
I01
sg15
I00
sg72
g121
sg74
g77
sg76
g77
sbsg15
I00
sg365
g0
(g101
g2
Ntp1792
Rp1793
(dp1794
g14
I00
sg32
I01
sg105
g963
sg15
I00
sbsg370
g0
(g321
g2
Ntp1795
Rp1796
(dp1797
g14
I00
sg32
I01
sg105
I01
sg15
I00
sbsg374
g0
(g321
g2
Ntp1798
Rp1799
(dp1800
g14
I00
sg32
I01
sg105
I00
sg15
I00
sbsg970
g0
(g68
g2
Ntp1801
Rp1802
(dp1803
g14
I00
sg32
I01
sg15
I00
sg72
g126
sg74
g77
sg76
g77
sbsg974
g0
(g68
g2
Ntp1804
Rp1805
(dp1806
g14
I00
sg32
I01
sg15
I00
sg72
S'reducedEgamma'
p1807
sg74
g77
sg76
S'reducedConversions'
p1808
sbsg11
(lp1809
g956
ag365
ag370
ag374
ag974
ag970
asbag0
(g85
g2
Ntp1810
Rp1811
(dp1812
g14
I00
sg32
I01
sg15
I00
sg365
g0
(g101
g2
Ntp1813
Rp1814
(dp1815
g14
I00
sg32
I01
sg105
g987
sg15
I00
sbsg436
g0
(g380
g2
Ntp1816
Rp1817
(dp1818
g14
I00
sg32
I01
sg105
F1.479
sg15
I00
sbsg370
g0
(g321
g2
Ntp1819
Rp1820
(dp1821
g14
I00
sg32
I01
sg105
I00
sg15
I00
sbsg11
(lp1822
g365
ag436
ag370
ag995
ag996
ag374
asg995
g0
(g997
g2
Ntp1823
Rp1824
(dp1825
g14
I00
sg32
I01
sg105
I3
sg15
I00
sbsg996
g0
(g997
g2
Ntp1826
Rp1827
(dp1828
g14
I00
sg32
I01
sg105
I2
sg15
I00
sbsg374
g0
(g321
g2
Ntp1829
Rp1830
(dp1831
g14
I00
sg32
I01
sg105
I00
sg15
I00
sbsbatp1832
Rp1833
(dp1834
g14
I00
sg32
I01
sg15
I00
sg33
I1
sbsg11
(lp1835
g355
ag360
asbsg15
I00
sg723
g0
(g101
g2
Ntp1836
Rp1837
(dp1838
g14
I00
sg32
I01
sg105
S'0025c1841da1ab64a08d703ded72409b'
p1839
sg15
I00
sbsg728
g0
(g321
g2
Ntp1840
Rp1841
(dp1842
g14
I00
sg32
I00
sg105
I01
sg15
I00
sbsg11
(lp1843
g351
ag723
ag728
asbag0
(g85
g2
Ntp1844
Rp1845
(dp1846
g14
I00
sg32
I01
sg351
g0
(g85
g2
Ntp1847
Rp1848
(dp1849
g14
I00
sg32
I01
sg15
I01
sg355
g0
(g101
g2
Ntp1850
Rp1851
(dp1852
g14
I00
sg32
I01
sg105
S'heepElectronID-HEEPV60'
p1853
sg15
I00
sbsg360
g0
(g83
g20
(lp1854
g0
(g85
g2
Ntp1855
Rp1856
(dp1857
g14
I00
sg32
I01
sg15
I00
sg365
g0
(g101
g2
Ntp1858
Rp1859
(dp1860
g14
I00
sg32
I01
sg105
g369
sg15
I00
sbsg370
g0
(g321
g2
Ntp1861
Rp1862
(dp1863
g14
I00
sg32
I01
sg105
I00
sg15
I00
sbsg374
g0
(g321
g2
Ntp1864
Rp1865
(dp1866
g14
I00
sg32
I01
sg105
I00
sg15
I00
sbsg11
(lp1867
g370
ag379
ag365
ag374
asg379
g0
(g380
g2
Ntp1868
Rp1869
(dp1870
g14
I00
sg32
I01
sg105
F35.0
sg15
I00
sbsbag0
(g85
g2
Ntp1871
Rp1872
(dp1873
g14
I00
sg32
I01
sg15
I00
sg365
g0
(g101
g2
Ntp1874
Rp1875
(dp1876
g14
I00
sg32
I01
sg105
g390
sg15
I00
sbsg370
g0
(g321
g2
Ntp1877
Rp1878
(dp1879
g14
I00
sg32
I01
sg105
I00
sg15
I00
sbsg374
g0
(g321
g2
Ntp1880
Rp1881
(dp1882
g14
I00
sg32
I01
sg105
I00
sg15
I00
sbsg397
g0
(g83
g20
(lp1883
g0
(g85
g2
Ntp1884
Rp1885
(dp1886
g14
I00
sg32
I01
sg15
I00
sg402
g0
(g380
g2
Ntp1887
Rp1888
(dp1889
g14
I00
sg32
I01
sg105
F1.4442
sg15
I00
sbsg406
g0
(g380
g2
Ntp1890
Rp1891
(dp1892
g14
I00
sg32
I01
sg105
F0.0
sg15
I00
sbsg11
(lp1893
g402
ag406
asbag0
(g85
g2
Ntp1894
Rp1895
(dp1896
g14
I00
sg32
I01
sg15
I00
sg402
g0
(g380
g2
Ntp1897
Rp1898
(dp1899
g14
I00
sg32
I01
sg105
F2.5
sg15
I00
sbsg406
g0
(g380
g2
Ntp1900
Rp1901
(dp1902
g14
I00
sg32
I01
sg105
F1.566
sg15
I00
sbsg11
(lp1903
g402
ag406
asbatp1904
Rp1905
(dp1906
g14
I00
sg32
I01
sg15
I00
sg33
I1
sbsg11
(lp1907
g370
ag425
ag365
ag397
ag374
asg425
g0
(g321
g2
Ntp1908
Rp1909
(dp1910
g14
I00
sg32
I01
sg105
I01
sg15
I00
sbsbag0
(g85
g2
Ntp1911
Rp1912
(dp1913
g14
I00
sg32
I01
sg15
I00
sg365
g0
(g101
g2
Ntp1914
Rp1915
(dp1916
g14
I00
sg32
I01
sg105
g461
sg15
I00
sbsg436
g0
(g380
g2
Ntp1917
Rp1918
(dp1919
g14
I00
sg32
I01
sg105
F1.479
sg15
I00
sbsg465
g0
(g380
g2
Ntp1920
Rp1921
(dp1922
g14
I00
sg32
I01
sg105
F0.004
sg15
I00
sbsg370
g0
(g321
g2
Ntp1923
Rp1924
(dp1925
g14
I00
sg32
I01
sg105
I00
sg15
I00
sbsg472
g0
(g380
g2
Ntp1926
Rp1927
(dp1928
g14
I00
sg32
I01
sg105
F0.006
sg15
I00
sbsg11
(lp1929
g365
ag436
ag465
ag370
ag472
ag374
asg374
g0
(g321
g2
Ntp1930
Rp1931
(dp1932
g14
I00
sg32
I01
sg105
I00
sg15
I00
sbsbag0
(g85
g2
Ntp1933
Rp1934
(dp1935
g14
I00
sg32
I01
sg15
I00
sg365
g0
(g101
g2
Ntp1936
Rp1937
(dp1938
g14
I00
sg32
I01
sg105
g486
sg15
I00
sbsg370
g0
(g321
g2
Ntp1939
Rp1940
(dp1941
g14
I00
sg32
I01
sg105
I00
sg15
I00
sbsg490
g0
(g380
g2
Ntp1942
Rp1943
(dp1944
g14
I00
sg32
I01
sg105
F0.06
sg15
I00
sbsg436
g0
(g380
g2
Ntp1945
Rp1946
(dp1947
g14
I00
sg32
I01
sg105
F1.479
sg15
I00
sbsg497
g0
(g380
g2
Ntp1948
Rp1949
(dp1950
g14
I00
sg32
I01
sg105
F0.06
sg15
I00
sbsg11
(lp1951
g365
ag370
ag490
ag436
ag497
ag374
asg374
g0
(g321
g2
Ntp1952
Rp1953
(dp1954
g14
I00
sg32
I01
sg105
I00
sg15
I00
sbsbag0
(g85
g2
Ntp1955
Rp1956
(dp1957
g14
I00
sg32
I01
sg15
I00
sg365
g0
(g101
g2
Ntp1958
Rp1959
(dp1960
g14
I00
sg32
I01
sg105
g435
sg15
I00
sbsg436
g0
(g380
g2
Ntp1961
Rp1962
(dp1963
g14
I00
sg32
I01
sg105
F1.479
sg15
I00
sbsg370
g0
(g321
g2
Ntp1964
Rp1965
(dp1966
g14
I00
sg32
I01
sg105
I00
sg15
I00
sbsg443
g0
(g380
g2
Ntp1967
Rp1968
(dp1969
g14
I00
sg32
I01
sg105
I9999
sg15
I00
sbsg11
(lp1970
g365
ag436
ag370
ag374
ag448
ag443
asg448
g0
(g380
g2
Ntp1971
Rp1972
(dp1973
g14
I00
sg32
I01
sg105
F0.03
sg15
I00
sbsg374
g0
(g321
g2
Ntp1974
Rp1975
(dp1976
g14
I00
sg32
I01
sg105
I00
sg15
I00
sbsbag0
(g85
g2
Ntp1977
Rp1978
(dp1979
g14
I00
sg32
I01
sg15
I00
sg365
g0
(g101
g2
Ntp1980
Rp1981
(dp1982
g14
I00
sg32
I01
sg105
S'GsfEleFull5x5E2x5OverE5x5Cut'
p1983
sg15
I00
sbsg370
g0
(g321
g2
Ntp1984
Rp1985
(dp1986
g14
I00
sg32
I01
sg105
I00
sg15
I00
sbsg374
g0
(g321
g2
Ntp1987
Rp1988
(dp1989
g14
I00
sg32
I01
sg105
I00
sg15
I00
sbsS'minE2x5OverE5x5EB'
p1990
g0
(g380
g2
Ntp1991
Rp1992
(dp1993
g14
I00
sg32
I01
sg105
F0.94
sg15
I00
sbsS'minE2x5OverE5x5EE'
p1994
g0
(g380
g2
Ntp1995
Rp1996
(dp1997
g14
I00
sg32
I01
sg105
F-1.0
sg15
I00
sbsg11
(lp1998
g365
ag370
ag374
ag1990
ag1994
aS'minE1x5OverE5x5EE'
p1999
aS'minE1x5OverE5x5EB'
p2000
asg1999
g0
(g380
g2
Ntp2001
Rp2002
(dp2003
g14
I00
sg32
I01
sg105
F-1.0
sg15
I00
sbsg2000
g0
(g380
g2
Ntp2004
Rp2005
(dp2006
g14
I00
sg32
I01
sg105
F0.83
sg15
I00
sbsbag0
(g85
g2
Ntp2007
Rp2008
(dp2009
g14
I00
sg32
I01
sg15
I00
sg365
g0
(g101
g2
Ntp2010
Rp2011
(dp2012
g14
I00
sg32
I01
sg105
S'GsfEleHadronicOverEMLinearCut'
p2013
sg15
I00
sbsg370
g0
(g321
g2
Ntp2014
Rp2015
(dp2016
g14
I00
sg32
I01
sg105
I00
sg15
I00
sbsg374
g0
(g321
g2
Ntp2017
Rp2018
(dp2019
g14
I00
sg32
I01
sg105
I00
sg15
I00
sbsg669
g0
(g380
g2
Ntp2020
Rp2021
(dp2022
g14
I00
sg32
I01
sg105
I5
sg15
I00
sbsg673
g0
(g380
g2
Ntp2023
Rp2024
(dp2025
g14
I00
sg32
I01
sg105
F0.0
sg15
I00
sbsg677
g0
(g380
g2
Ntp2026
Rp2027
(dp2028
g14
I00
sg32
I01
sg105
F1.0
sg15
I00
sbsg681
g0
(g380
g2
Ntp2029
Rp2030
(dp2031
g14
I00
sg32
I01
sg105
F0.0
sg15
I00
sbsg11
(lp2032
g365
ag370
ag374
ag669
ag677
ag686
ag673
ag687
ag681
asg686
g0
(g380
g2
Ntp2033
Rp2034
(dp2035
g14
I00
sg32
I01
sg105
F0.05
sg15
I00
sbsg687
g0
(g380
g2
Ntp2036
Rp2037
(dp2038
g14
I00
sg32
I01
sg105
F0.05
sg15
I00
sbsbag0
(g85
g2
Ntp2039
Rp2040
(dp2041
g14
I00
sg32
I01
sg15
I00
sg365
g0
(g101
g2
Ntp2042
Rp2043
(dp2044
g14
I00
sg32
I01
sg105
g662
sg15
I00
sbsg370
g0
(g321
g2
Ntp2045
Rp2046
(dp2047
g14
I00
sg32
I01
sg105
I00
sg15
I00
sbsg374
g0
(g321
g2
Ntp2048
Rp2049
(dp2050
g14
I00
sg32
I01
sg105
I00
sg15
I00
sbsg669
g0
(g380
g2
Ntp2051
Rp2052
(dp2053
g14
I00
sg32
I01
sg105
F5.0
sg15
I00
sbsg673
g0
(g380
g2
Ntp2054
Rp2055
(dp2056
g14
I00
sg32
I01
sg105
F0.0
sg15
I00
sbsg677
g0
(g380
g2
Ntp2057
Rp2058
(dp2059
g14
I00
sg32
I01
sg105
F5.0
sg15
I00
sbsg681
g0
(g380
g2
Ntp2060
Rp2061
(dp2062
g14
I00
sg32
I01
sg105
F0.0
sg15
I00
sbsg11
(lp2063
g365
ag370
ag374
ag669
ag677
ag686
ag673
ag687
ag681
asg686
g0
(g380
g2
Ntp2064
Rp2065
(dp2066
g14
I00
sg32
I01
sg105
F0.0
sg15
I00
sbsg687
g0
(g380
g2
Ntp2067
Rp2068
(dp2069
g14
I00
sg32
I01
sg105
F0.0
sg15
I00
sbsbag0
(g85
g2
Ntp2070
Rp2071
(dp2072
g14
I00
sg32
I01
sS'rhoConstant'
p2073
g0
(g380
g2
Ntp2074
Rp2075
(dp2076
g14
I00
sg32
I01
sg105
F0.28
sg15
I00
sbsg15
I00
sg365
g0
(g101
g2
Ntp2077
Rp2078
(dp2079
g14
I00
sg32
I01
sg105
S'GsfEleEmHadD1IsoRhoCut'
p2080
sg15
I00
sbsg370
g0
(g321
g2
Ntp2081
Rp2082
(dp2083
g14
I00
sg32
I01
sg105
I01
sg15
I00
sbsg681
g0
(g380
g2
Ntp2084
Rp2085
(dp2086
g14
I00
sg32
I01
sg105
F0.0
sg15
I00
sbsg374
g0
(g321
g2
Ntp2087
Rp2088
(dp2089
g14
I00
sg32
I01
sg105
I00
sg15
I00
sbsg669
g0
(g380
g2
Ntp2090
Rp2091
(dp2092
g14
I00
sg32
I01
sg105
F2.5
sg15
I00
sbsg673
g0
(g380
g2
Ntp2093
Rp2094
(dp2095
g14
I00
sg32
I01
sg105
F50.0
sg15
I00
sbsg677
g0
(g380
g2
Ntp2096
Rp2097
(dp2098
g14
I00
sg32
I01
sg105
F2.0
sg15
I00
sbsg589
g0
(g68
g2
Ntp2099
Rp2100
(dp2101
g14
I00
sg32
I01
sg15
I00
sg72
g938
sg74
g77
sg76
g77
sbsg11
(lp2102
g2073
ag365
ag370
ag374
ag669
ag677
ag589
ag686
ag673
ag687
ag681
asg686
g0
(g380
g2
Ntp2103
Rp2104
(dp2105
g14
I00
sg32
I01
sg105
F0.03
sg15
I00
sbsg687
g0
(g380
g2
Ntp2106
Rp2107
(dp2108
g14
I00
sg32
I01
sg105
F0.03
sg15
I00
sbsbag0
(g85
g2
Ntp2109
Rp2110
(dp2111
g14
I00
sg32
I01
sg15
I00
sg365
g0
(g101
g2
Ntp2112
Rp2113
(dp2114
g14
I00
sg32
I01
sg105
S'GsfEleDxyCut'
p2115
sg15
I00
sbsg370
g0
(g321
g2
Ntp2116
Rp2117
(dp2118
g14
I00
sg32
I01
sg105
I01
sg15
I00
sbsg436
g0
(g380
g2
Ntp2119
Rp2120
(dp2121
g14
I00
sg32
I01
sg105
F1.479
sg15
I00
sbsS'dxyCutValueEB'
p2122
g0
(g380
g2
Ntp2123
Rp2124
(dp2125
g14
I00
sg32
I01
sg105
F0.02
sg15
I00
sbsS'vertexSrc'
p2126
g0
(g68
g2
Ntp2127
Rp2128
(dp2129
g14
I00
sg32
I01
sg15
I00
sg72
S'offlinePrimaryVertices'
p2130
sg74
g77
sg76
g77
sbsg11
(lp2131
g365
ag370
ag436
ag2122
ag2126
aS'dxyCutValueEE'
p2132
ag374
aS'vertexSrcMiniAOD'
p2133
asg2133
g0
(g68
g2
Ntp2134
Rp2135
(dp2136
g14
I00
sg32
I01
sg15
I00
sg72
S'offlineSlimmedPrimaryVertices'
p2137
sg74
g77
sg76
g77
sbsg374
g0
(g321
g2
Ntp2138
Rp2139
(dp2140
g14
I00
sg32
I01
sg105
I00
sg15
I00
sbsg2132
g0
(g380
g2
Ntp2141
Rp2142
(dp2143
g14
I00
sg32
I01
sg105
F0.05
sg15
I00
sbsbag0
(g85
g2
Ntp2144
Rp2145
(dp2146
g14
I00
sg32
I01
sg15
I00
sg365
g0
(g101
g2
Ntp2147
Rp2148
(dp2149
g14
I00
sg32
I01
sg105
g987
sg15
I00
sbsg436
g0
(g380
g2
Ntp2150
Rp2151
(dp2152
g14
I00
sg32
I01
sg105
F1.479
sg15
I00
sbsg370
g0
(g321
g2
Ntp2153
Rp2154
(dp2155
g14
I00
sg32
I01
sg105
I00
sg15
I00
sbsg11
(lp2156
g365
ag436
ag370
ag995
ag996
ag374
asg995
g0
(g997
g2
Ntp2157
Rp2158
(dp2159
g14
I00
sg32
I01
sg105
I1
sg15
I00
sbsg996
g0
(g997
g2
Ntp2160
Rp2161
(dp2162
g14
I00
sg32
I01
sg105
I1
sg15
I00
sbsg374
g0
(g321
g2
Ntp2163
Rp2164
(dp2165
g14
I00
sg32
I01
sg105
I00
sg15
I00
sbsbag0
(g85
g2
Ntp2166
Rp2167
(dp2168
g14
I00
sg32
I01
sg15
I00
sg365
g0
(g101
g2
Ntp2169
Rp2170
(dp2171
g14
I00
sg32
I01
sg105
S'GsfEleEcalDrivenCut'
p2172
sg15
I00
sbsg436
g0
(g380
g2
Ntp2173
Rp2174
(dp2175
g14
I00
sg32
I01
sg105
F1.479
sg15
I00
sbsg370
g0
(g321
g2
Ntp2176
Rp2177
(dp2178
g14
I00
sg32
I01
sg105
I00
sg15
I00
sbsS'ecalDrivenEB'
p2179
g0
(g566
g2
Ntp2180
Rp2181
(dp2182
g14
I00
sg32
I01
sg105
I1
sg15
I00
sbsS'ecalDrivenEE'
p2183
g0
(g566
g2
Ntp2184
Rp2185
(dp2186
g14
I00
sg32
I01
sg105
I1
sg15
I00
sbsg11
(lp2187
g365
ag436
ag370
ag2179
ag2183
ag374
asg374
g0
(g321
g2
Ntp2188
Rp2189
(dp2190
g14
I00
sg32
I01
sg105
I00
sg15
I00
sbsbatp2191
Rp2192
(dp2193
g14
I00
sg32
I01
sg15
I00
sg33
I1
sbsg11
(lp2194
g355
ag360
asbsg15
I00
sg723
g0
(g101
g2
Ntp2195
Rp2196
(dp2197
g14
I00
sg32
I01
sg105
S'df10ac7e3a9c22f63fa7936573beaafb'
p2198
sg15
I00
sbsg728
g0
(g321
g2
Ntp2199
Rp2200
(dp2201
g14
I00
sg32
I00
sg105
I01
sg15
I00
sbsg11
(lp2202
g351
ag723
ag728
asbatp2203
Rp2204
(dp2205
g14
I00
sg32
I01
sg15
I00
sg33
I1
sbsg34
S'egmGsfElectronIDs'
p2206
sg35
S'VersionedGsfElectronIdProducer'
p2207
sbag282
ag284
aag283
aag282
aag336
asg338
g336
sg286
g284
ssS'end'
p2208
g283
sbsg34
S'egmGsfElectronIDTask'
p2209
sb(lp2210
g53
a(lp2211
Nag2210
ag2210
aag2211
assg2208
g2211
sbsbssS'_Process__source'
p2212
g0
(cFWCore.ParameterSet.Modules
Source
p2213
g2
Ntp2214
Rp2215
(dp2216
g11
(lp2217
S'fileNames'
p2218
asg14
I00
sg15
I00
sg16
I192
sg17
g18
sg2218
g0
(g19
g20
(lp2219
S'file:/wk_cms2/sam7k9621/CMSSW_9_2_8/src/TriggerEfficiency/DataFltr/test/test_electron.root'
p2220
atp2221
Rp2222
(dp2223
g14
I00
sg32
I00
sg15
I00
sg33
I1
sbsg35
S'PoolSource'
p2224
sbsg280
g62
sS'XMLFromDBSource'
p2225
g0
(g7
g2
Ntp2226
Rp2227
(dp2228
g11
(lp2229
S'rootDDName'
p2230
aS'label'
p2231
asg14
I00
sg15
I00
sg16
I52
sg17
g18
sg2230
g0
(g101
g2
Ntp2232
Rp2233
(dp2234
g14
I00
sg32
I01
sg105
S'cms:OCMS'
p2235
sg15
I00
sbsg2231
g0
(g101
g2
Ntp2236
Rp2237
(dp2238
g14
I00
sg32
I01
sg105
S'Extended'
p2239
sg15
I00
sbsg34
g2225
sg35
S'XMLIdealGeometryESProducer'
p2240
sbsS'hcalDDDSimConstants'
p2241
g0
(g7
g2
Ntp2242
Rp2243
(dp2244
g11
(lp2245
S'appendToDataLabel'
p2246
asg14
I00
sg2246
g0
(g101
g2
Ntp2247
Rp2248
(dp2249
g14
I00
sg32
I01
sg105
g77
sg15
I00
sbsg15
I00
sg16
I52
sg17
g18
sg34
g2241
sg35
S'HcalDDDSimConstantsESModule'
p2250
sbsS'source'
p2251
g2215
sS'mvaEleID_Spring15_25ns_nonTrig_V1_wp90'
p2252
g0
(g85
g2
Ntp2253
Rp2254
(dp2255
g14
I00
sg32
I01
sg15
I01
sg355
g0
(g101
g2
Ntp2256
Rp2257
(dp2258
g14
I00
sg32
I01
sg105
S'mvaEleID-Spring15-25ns-nonTrig-V1-wp90'
p2259
sg15
I00
sbsg360
g0
(g83
g20
(lp2260
g0
(g85
g2
Ntp2261
Rp2262
(dp2263
g14
I00
sg32
I01
sS'mvaValueMapName'
p2264
g0
(g68
g2
Ntp2265
Rp2266
(dp2267
g14
I00
sg32
I01
sg15
I00
sg72
S'electronMVAValueMapProducer'
p2268
sg74
g77
sg76
S'ElectronMVAEstimatorRun2Spring15NonTrig25nsV1Values'
p2269
sbsS'mvaCategoriesMapName'
p2270
g0
(g68
g2
Ntp2271
Rp2272
(dp2273
g14
I00
sg32
I01
sg15
I00
sg72
S'electronMVAValueMapProducer'
p2274
sg74
g77
sg76
S'ElectronMVAEstimatorRun2Spring15NonTrig25nsV1Categories'
p2275
sbsg365
g0
(g101
g2
Ntp2276
Rp2277
(dp2278
g14
I00
sg32
I01
sg105
S'GsfEleMVACut'
p2279
sg15
I00
sbsg370
g0
(g321
g2
Ntp2280
Rp2281
(dp2282
g14
I00
sg32
I01
sg105
I01
sg15
I00
sbsS'mvaCuts'
p2283
g0
(cFWCore.ParameterSet.Types
vdouble
p2284
g20
(lp2285
F-0.083313
aF-0.235222
aF-0.67099
aF0.913286
aF0.805013
aF0.358969
atp2286
Rp2287
(dp2288
g14
I00
sg32
I01
sg15
I00
sbsg374
g0
(g321
g2
Ntp2289
Rp2290
(dp2291
g14
I00
sg32
I01
sg105
I00
sg15
I00
sbsg11
(lp2292
g2264
ag2270
ag365
ag370
ag2283
ag374
asg15
I00
sbatp2293
Rp2294
(dp2295
g14
I00
sg32
I01
sg15
I00
sg33
I1
sbsg728
g0
(g321
g2
Ntp2296
Rp2297
(dp2298
g14
I00
sg32
I00
sg105
I01
sg15
I00
sbsg11
(lp2299
g355
ag360
ag728
asg34
g2252
sbsS'CaloTowerGeometryFromDBEP'
p2300
g0
(g7
g2
Ntp2301
Rp2302
(dp2303
g11
(lp2304
S'applyAlignment'
p2305
asg14
I00
sg15
I00
sg16
I52
sg17
g18
sg34
g2300
sg2305
g0
(g321
g2
Ntp2306
Rp2307
(dp2308
g14
I00
sg32
I01
sg105
I00
sg15
I00
sbsg35
g2300
sbsg2209
g53
sS'_Process__InExtendCall'
p2309
I00
sS'_Process__producers'
p2310
(dp2311
g280
g62
sg2206
g338
sg330
g286
ssS'siPixelQualityESProducer'
p2312
g0
(g7
g2
Ntp2313
Rp2314
(dp2315
g11
(lp2316
S'ListOfRecordToMerge'
p2317
asg14
I00
sg15
I01
sg16
I52
sg17
g18
sg2317
g0
(g83
g20
(lp2318
g0
(g85
g2
Ntp2319
Rp2320
(dp2321
g14
I00
sg32
I01
sg15
I00
sS'record'
p2322
g0
(g101
g2
Ntp2323
Rp2324
(dp2325
g14
I00
sg32
I01
sg105
S'SiPixelQualityFromDbRcd'
p2326
sg15
I00
sbsS'tag'
p2327
g0
(g101
g2
Ntp2328
Rp2329
(dp2330
g14
I00
sg32
I01
sg105
g77
sg15
I00
sbsg11
(lp2331
g2322
ag2327
asbag0
(g85
g2
Ntp2332
Rp2333
(dp2334
g14
I00
sg32
I01
sg15
I00
sg2322
g0
(g101
g2
Ntp2335
Rp2336
(dp2337
g14
I00
sg32
I01
sg105
S'SiPixelDetVOffRcd'
p2338
sg15
I00
sbsg2327
g0
(g101
g2
Ntp2339
Rp2340
(dp2341
g14
I00
sg32
I01
sg105
g77
sg15
I00
sbsg11
(lp2342
g2322
ag2327
asbatp2343
Rp2344
(dp2345
g14
I00
sg32
I01
sg15
I00
sg33
I1
sbsg34
g2312
sg35
S'SiPixelQualityESProducer'
p2346
sbsS'GlobalTag'
p2347
g0
(cFWCore.ParameterSet.Modules
ESSource
p2348
g2
Ntp2349
Rp2350
(dp2351
g11
(lp2352
S'DBParameters'
p2353
aS'connect'
p2354
aS'globaltag'
p2355
aS'RefreshEachRun'
p2356
aS'pfnPrefix'
p2357
aS'snapshotTime'
p2358
aS'toGet'
p2359
aS'pfnPostfix'
p2360
aS'RefreshAlways'
p2361
aS'ReconnectEachRun'
p2362
aS'RefreshOpenIOVs'
p2363
aS'DumpStat'
p2364
asg14
I00
sg17
S'/cvmfs/cms.cern.ch/slc6_amd64_gcc530/cms/cmssw/CMSSW_9_2_8/python/CondCore/ESSources/CondDBESSource_cfi.py'
p2365
sg15
I01
sg2355
g0
(g101
g2
Ntp2366
Rp2367
(dp2368
g14
I00
sg32
I01
sg105
S'92X_dataRun2_Prompt_v7'
p2369
sg15
I00
sbsg2356
g0
(g321
g2
Ntp2370
Rp2371
(dp2372
g14
I00
sg32
I00
sg105
I00
sg15
I00
sbsg2357
g0
(g101
g2
Ntp2373
Rp2374
(dp2375
g14
I00
sg32
I00
sg105
g77
sg15
I00
sbsg2358
g0
(g101
g2
Ntp2376
Rp2377
(dp2378
g14
I00
sg32
I01
sg105
g77
sg15
I00
sbsg2359
g0
(g83
g20
(lp2379
tp2380
Rp2381
(dp2382
g14
I00
sg32
I01
sg15
I00
sg33
I1
sbsg2360
g0
(g101
g2
Ntp2383
Rp2384
(dp2385
g14
I00
sg32
I00
sg105
g77
sg15
I00
sbsg2353
g0
(g85
g2
Ntp2386
Rp2387
(dp2388
g14
I00
sg32
I01
sS'authenticationPath'
p2389
g0
(g101
g2
Ntp2390
Rp2391
(dp2392
g14
I00
sg32
I00
sg105
g77
sg15
I00
sbsg15
I00
sS'messageLevel'
p2393
g0
(g566
g2
Ntp2394
Rp2395
(dp2396
g14
I00
sg32
I00
sg105
I0
sg15
I00
sbsg11
(lp2397
g2393
aS'security'
p2398
aS'authenticationSystem'
p2399
ag2389
asg2398
g0
(g101
g2
Ntp2400
Rp2401
(dp2402
g14
I00
sg32
I00
sg105
g77
sg15
I00
sbsg2399
g0
(g566
g2
Ntp2403
Rp2404
(dp2405
g14
I00
sg32
I00
sg105
I0
sg15
I00
sbsbsg2361
g0
(g321
g2
Ntp2406
Rp2407
(dp2408
g14
I00
sg32
I00
sg105
I00
sg15
I00
sbsg16
I19
sg2354
g0
(g101
g2
Ntp2409
Rp2410
(dp2411
g14
I00
sg32
I01
sg105
S'frontier://FrontierProd/CMS_CONDITIONS'
p2412
sg15
I00
sbsg2362
g0
(g321
g2
Ntp2413
Rp2414
(dp2415
g14
I00
sg32
I00
sg105
I00
sg15
I00
sbsg34
g2347
sg2363
g0
(g321
g2
Ntp2416
Rp2417
(dp2418
g14
I00
sg32
I00
sg105
I00
sg15
I00
sbsg2364
g0
(g321
g2
Ntp2419
Rp2420
(dp2421
g14
I00
sg32
I00
sg105
I00
sg15
I00
sbsg35
S'PoolDBESSource'
p2422
sbsS'mvaEleID_Spring15_50ns_Trig_V1_wp90'
p2423
g0
(g85
g2
Ntp2424
Rp2425
(dp2426
g14
I00
sg32
I01
sg15
I01
sg355
g0
(g101
g2
Ntp2427
Rp2428
(dp2429
g14
I00
sg32
I01
sg105
S'mvaEleID-Spring15-50ns-Trig-V1-wp90'
p2430
sg15
I00
sbsg360
g0
(g83
g20
(lp2431
g0
(g85
g2
Ntp2432
Rp2433
(dp2434
g14
I00
sg32
I01
sg2264
g0
(g68
g2
Ntp2435
Rp2436
(dp2437
g14
I00
sg32
I01
sg15
I00
sg72
S'electronMVAValueMapProducer'
p2438
sg74
g77
sg76
S'ElectronMVAEstimatorRun2Spring15Trig50nsV1Values'
p2439
sbsg2270
g0
(g68
g2
Ntp2440
Rp2441
(dp2442
g14
I00
sg32
I01
sg15
I00
sg72
S'electronMVAValueMapProducer'
p2443
sg74
g77
sg76
S'ElectronMVAEstimatorRun2Spring15Trig50nsV1Categories'
p2444
sbsg365
g0
(g101
g2
Ntp2445
Rp2446
(dp2447
g14
I00
sg32
I01
sg105
g2279
sg15
I00
sbsg370
g0
(g321
g2
Ntp2448
Rp2449
(dp2450
g14
I00
sg32
I01
sg105
I01
sg15
I00
sbsg2283
g0
(g2284
g20
(lp2451
F0.953843
aF0.849994
aF0.514118
atp2452
Rp2453
(dp2454
g14
I00
sg32
I01
sg15
I00
sbsg374
g0
(g321
g2
Ntp2455
Rp2456
(dp2457
g14
I00
sg32
I01
sg105
I00
sg15
I00
sbsg11
(lp2458
g2264
ag2270
ag365
ag370
ag2283
ag374
asg15
I00
sbatp2459
Rp2460
(dp2461
g14
I00
sg32
I01
sg15
I00
sg33
I1
sbsg728
g0
(g321
g2
Ntp2462
Rp2463
(dp2464
g14
I00
sg32
I00
sg105
I01
sg15
I00
sbsg11
(lp2465
g355
ag360
ag728
asg34
g2423
sbsS'_Process__endpaths'
p2466
g0
(cFWCore.ParameterSet.DictTypes
SortedKeysDict
p2467
c__builtin__
dict
p2468
(dp2469
S'endPath'
p2470
g0
(cFWCore.ParameterSet.SequenceTypes
EndPath
p2471
g2
Ntp2472
Rp2473
(dp2474
g14
I00
sg43
g0
(cFWCore.ParameterSet.SequenceTypes
_SequenceCollection
p2475
g2
Ntp2476
Rp2477
(dp2478
g55
(lp2479
g0
(cFWCore.ParameterSet.Modules
OutputModule
p2480
g2
Ntp2481
Rp2482
(dp2483
g11
(lp2484
S'fileName'
p2485
aS'SelectEvents'
p2486
aS'outputCommands'
p2487
asg14
I00
sg15
I00
sg2487
g0
(g19
g20
(lp2488
S'keep *'
p2489
aS'drop *_slimmedPhotons_*_*'
p2490
aS'drop *_slimmedJets*_*_*'
p2491
aS'drop *_slimmedTaus_*_*'
p2492
atp2493
Rp2494
(dp2495
g14
I00
sg32
I00
sg15
I00
sg33
I1
sbsg17
S'/wk_cms2/sam7k9621/CMSSW_9_2_8/src/TriggerEfficiency/DataFltr/production/DataFltr_cfg.py'
p2496
sg2486
g0
(g85
g2
Ntp2497
Rp2498
(dp2499
g14
I00
sg32
I00
sg2486
g0
(g19
g20
(lp2500
S'filterpath'
p2501
atp2502
Rp2503
(dp2504
g14
I00
sg32
I01
sg15
I00
sg33
I1
sbsg15
I00
sg11
(lp2505
g2486
asbsg16
I128
sg34
S'edmOut'
p2506
sg2485
g0
(g101
g2
Ntp2507
Rp2508
(dp2509
g14
I00
sg32
I00
sg105
S'TnP_test_electron.root'
p2510
sg15
I00
sbsg35
S'PoolOutputModule'
p2511
sbasbsg34
g2470
sg15
I00
sg44
g0
(g45
g2
Ntp2512
Rp2513
(dp2514
g49
(dp2515
sg2208
(lp2516
Nag2516
ag2516
asbsbstp2517
Rp2518
(dp2519
S'list'
p2520
(lp2521
g2470
asbsS'MuonDetLayerGeometryESProducer'
p2522
g0
(g7
g2
Ntp2523
Rp2524
(dp2525
g11
(lp2526
sg14
I00
sg15
I00
sg16
I52
sg17
g18
sg34
g2522
sg35
g2522
sbsS'EcalEndcapGeometryFromDBEP'
p2527
g0
(g7
g2
Ntp2528
Rp2529
(dp2530
g11
(lp2531
g2305
asg14
I00
sg15
I01
sg16
I52
sg17
g18
sg34
g2527
sg2305
g0
(g321
g2
Ntp2532
Rp2533
(dp2534
g14
I00
sg32
I01
sg105
I01
sg15
I01
sbsg35
g2527
sbsS'MessageLogger'
p2535
g0
(cFWCore.ParameterSet.Modules
Service
p2536
g2
Ntp2537
Rp2538
(dp2539
g14
I00
sS'suppressInfo'
p2540
g0
(g19
g20
(lp2541
tp2542
Rp2543
(dp2544
g14
I00
sg32
I00
sg15
I00
sg33
I1
sbsS'suppressDebug'
p2545
g0
(g19
g20
(lp2546
tp2547
Rp2548
(dp2549
g14
I00
sg32
I00
sg15
I00
sg33
I1
sbsS'cout'
p2550
g0
(g85
g2
Ntp2551
Rp2552
(dp2553
g14
I00
sg32
I00
sS'placeholder'
p2554
g0
(g321
g2
Ntp2555
Rp2556
(dp2557
g14
I00
sg32
I00
sg105
I01
sg15
I00
sbsg15
I00
sg11
(lp2558
g2554
asbsg16
I10
sS'debugModules'
p2559
g0
(g19
g20
(lp2560
tp2561
Rp2562
(dp2563
g14
I00
sg32
I00
sg15
I00
sg33
I1
sbsg35
g2535
sS'fwkJobReports'
p2564
g0
(g19
g20
(lp2565
S'FrameworkJobReport'
p2566
atp2567
Rp2568
(dp2569
g14
I00
sg32
I00
sg15
I00
sg33
I1
sbsg11
(lp2570
g2540
aS'debugs'
p2571
ag2545
ag2550
aS'cerr_stats'
p2572
aS'warnings'
p2573
aS'default'
p2574
aS'statistics'
p2575
aS'cerr'
p2576
ag2566
aS'suppressWarning'
p2577
aS'errors'
p2578
aS'destinations'
p2579
ag2559
aS'infos'
p2580
aS'categories'
p2581
ag2564
asg2575
g0
(g19
g20
(lp2582
g2572
atp2583
Rp2584
(dp2585
g14
I00
sg32
I00
sg15
I00
sg33
I1
sbsg17
g18
sg2579
g0
(g19
g20
(lp2586
g2573
ag2578
ag2580
ag2571
ag2550
ag2576
atp2587
Rp2588
(dp2589
g14
I00
sg32
I00
sg15
I00
sg33
I1
sbsg2571
g0
(g85
g2
Ntp2590
Rp2591
(dp2592
g14
I00
sg32
I00
sg2554
g0
(g321
g2
Ntp2593
Rp2594
(dp2595
g14
I00
sg32
I00
sg105
I01
sg15
I00
sbsg15
I00
sg11
(lp2596
g2554
asbsg2573
g0
(g85
g2
Ntp2597
Rp2598
(dp2599
g14
I00
sg32
I00
sg2554
g0
(g321
g2
Ntp2600
Rp2601
(dp2602
g14
I00
sg32
I00
sg105
I01
sg15
I00
sbsg15
I00
sg11
(lp2603
g2554
asbsg2578
g0
(g85
g2
Ntp2604
Rp2605
(dp2606
g14
I00
sg32
I00
sg2554
g0
(g321
g2
Ntp2607
Rp2608
(dp2609
g14
I00
sg32
I00
sg105
I01
sg15
I00
sbsg15
I00
sg11
(lp2610
g2554
asbsg2566
g0
(g85
g2
Ntp2611
Rp2612
(dp2613
g14
I00
sg32
I00
sg15
I00
sg2574
g0
(g85
g2
Ntp2614
Rp2615
(dp2616
g14
I00
sg32
I00
sS'limit'
p2617
g0
(g566
g2
Ntp2618
Rp2619
(dp2620
g14
I00
sg32
I00
sg105
I0
sg15
I00
sbsg15
I00
sg11
(lp2621
g2617
asbsS'FwkJob'
p2622
g0
(g85
g2
Ntp2623
Rp2624
(dp2625
g14
I00
sg32
I00
sg15
I00
sg2617
g0
(g566
g2
Ntp2626
Rp2627
(dp2628
g14
I00
sg32
I00
sg105
I10000000
sg15
I00
sbsg11
(lp2629
S'optionalPSet'
p2630
ag2617
asg2630
g0
(g321
g2
Ntp2631
Rp2632
(dp2633
g14
I00
sg32
I00
sg105
I01
sg15
I00
sbsbsg11
(lp2634
g2574
ag2630
ag2622
asg2630
g0
(g321
g2
Ntp2635
Rp2636
(dp2637
g14
I00
sg32
I00
sg105
I01
sg15
I00
sbsbsg2577
g0
(g19
g20
(lp2638
tp2639
Rp2640
(dp2641
g14
I00
sg32
I00
sg15
I00
sg33
I1
sbsg2580
g0
(g85
g2
Ntp2642
Rp2643
(dp2644
g14
I00
sg32
I00
sg15
I00
sS'Root_NoDictionary'
p2645
g0
(g85
g2
Ntp2646
Rp2647
(dp2648
g14
I00
sg32
I00
sg15
I00
sg2617
g0
(g566
g2
Ntp2649
Rp2650
(dp2651
g14
I00
sg32
I00
sg105
I0
sg15
I00
sbsg11
(lp2652
g2630
ag2617
asg2630
g0
(g321
g2
Ntp2653
Rp2654
(dp2655
g14
I00
sg32
I00
sg105
I01
sg15
I00
sbsbsg11
(lp2656
g2630
ag2645
ag2554
asg2630
g0
(g321
g2
Ntp2657
Rp2658
(dp2659
g14
I00
sg32
I00
sg105
I01
sg15
I00
sbsg2554
g0
(g321
g2
Ntp2660
Rp2661
(dp2662
g14
I00
sg32
I00
sg105
I01
sg15
I00
sbsbsg2581
g0
(g19
g20
(lp2663
g2622
aS'FwkReport'
p2664
aS'FwkSummary'
p2665
ag2645
atp2666
Rp2667
(dp2668
g14
I00
sg32
I00
sg15
I00
sg33
I1
sbsg15
I00
sg2572
g0
(g85
g2
Ntp2669
Rp2670
(dp2671
g14
I00
sg32
I00
sg15
I00
sg2630
g0
(g321
g2
Ntp2672
Rp2673
(dp2674
g14
I00
sg32
I00
sg105
I01
sg15
I00
sbsg11
(lp2675
S'threshold'
p2676
aS'output'
p2677
ag2630
asg2676
g0
(g101
g2
Ntp2678
Rp2679
(dp2680
g14
I00
sg32
I00
sg105
S'WARNING'
p2681
sg15
I00
sbsg2677
g0
(g101
g2
Ntp2682
Rp2683
(dp2684
g14
I00
sg32
I00
sg105
g2576
sg15
I00
sbsbsg2574
g0
(g85
g2
Ntp2685
Rp2686
(dp2687
g14
I00
sg32
I00
sg15
I00
sg11
(lp2688
sbsS'_inProcess'
p2689
I01
sg2576
g0
(g85
g2
Ntp2690
Rp2691
(dp2692
g14
I00
sg32
I00
sS'noTimeStamps'
p2693
g0
(g321
g2
Ntp2694
Rp2695
(dp2696
g14
I00
sg32
I00
sg105
I00
sg15
I00
sbsg2664
g0
(g85
g2
Ntp2697
Rp2698
(dp2699
g14
I00
sg32
I00
sg15
I01
sS'reportEvery'
p2700
g0
(g566
g2
Ntp2701
Rp2702
(dp2703
g14
I00
sg32
I00
sg105
I1
sg15
I01
sbsg2617
g0
(g566
g2
Ntp2704
Rp2705
(dp2706
g14
I00
sg32
I00
sg105
I10000000
sg15
I00
sbsg11
(lp2707
g2700
ag2630
ag2617
asg2630
g0
(g321
g2
Ntp2708
Rp2709
(dp2710
g14
I00
sg32
I00
sg105
I01
sg15
I00
sbsbsg15
I00
sg2574
g0
(g85
g2
Ntp2711
Rp2712
(dp2713
g14
I00
sg32
I00
sg2617
g0
(g566
g2
Ntp2714
Rp2715
(dp2716
g14
I00
sg32
I00
sg105
I10000000
sg15
I00
sbsg15
I00
sg11
(lp2717
g2617
asbsg2645
g0
(g85
g2
Ntp2718
Rp2719
(dp2720
g14
I00
sg32
I00
sg15
I00
sg2617
g0
(g566
g2
Ntp2721
Rp2722
(dp2723
g14
I00
sg32
I00
sg105
I0
sg15
I00
sbsg11
(lp2724
g2630
ag2617
asg2630
g0
(g321
g2
Ntp2725
Rp2726
(dp2727
g14
I00
sg32
I00
sg105
I01
sg15
I00
sbsbsS'INFO'
p2728
g0
(g85
g2
Ntp2729
Rp2730
(dp2731
g14
I00
sg32
I00
sg2617
g0
(g566
g2
Ntp2732
Rp2733
(dp2734
g14
I00
sg32
I00
sg105
I0
sg15
I00
sbsg15
I00
sg11
(lp2735
g2617
asbsg2630
g0
(g321
g2
Ntp2736
Rp2737
(dp2738
g14
I00
sg32
I00
sg105
I01
sg15
I00
sbsg2622
g0
(g85
g2
Ntp2739
Rp2740
(dp2741
g14
I00
sg32
I00
sg15
I00
sg2617
g0
(g566
g2
Ntp2742
Rp2743
(dp2744
g14
I00
sg32
I00
sg105
I0
sg15
I00
sbsg11
(lp2745
g2630
ag2617
asg2630
g0
(g321
g2
Ntp2746
Rp2747
(dp2748
g14
I00
sg32
I00
sg105
I01
sg15
I00
sbsbsg2665
g0
(g85
g2
Ntp2749
Rp2750
(dp2751
g14
I00
sg32
I00
sg15
I00
sg2700
g0
(g566
g2
Ntp2752
Rp2753
(dp2754
g14
I00
sg32
I00
sg105
I1
sg15
I00
sbsg2617
g0
(g566
g2
Ntp2755
Rp2756
(dp2757
g14
I00
sg32
I00
sg105
I10000000
sg15
I00
sbsg11
(lp2758
g2700
ag2630
ag2617
asg2630
g0
(g321
g2
Ntp2759
Rp2760
(dp2761
g14
I00
sg32
I00
sg105
I01
sg15
I00
sbsbsg11
(lp2762
g2728
ag2693
ag2664
ag2574
ag2645
ag2676
ag2622
ag2665
ag2630
asg2676
g0
(g101
g2
Ntp2763
Rp2764
(dp2765
g14
I00
sg32
I00
sg105
g2728
sg15
I00
sbsbsbsS'_Process__services'
p2766
(dp2767
g2535
g2538
ssS'CastorGeometryFromDBEP'
p2768
g0
(g7
g2
Ntp2769
Rp2770
(dp2771
g11
(lp2772
g2305
asg14
I00
sg15
I00
sg16
I52
sg17
g18
sg34
g2768
sg2305
g0
(g321
g2
Ntp2773
Rp2774
(dp2775
g14
I00
sg32
I01
sg105
I00
sg15
I00
sbsg35
g2768
sbsS'HFRecalParameterBlock'
p2776
g0
(g85
g2
Ntp2777
Rp2778
(dp2779
g14
I00
sg32
I01
sg15
I00
sS'HFdepthTwoParameterA'
p2780
g0
(g2284
g20
(lp2781
F0.002861
aF0.004168
aF0.0064
aF0.008388
aF0.011601
aF0.014425
aF0.018633
aF0.023232
aF0.028274
aF0.035447
aF0.051579
aF0.086593
atp2782
Rp2783
(dp2784
g14
I00
sg32
I01
sg15
I00
sbsS'HFdepthOneParameterA'
p2785
g0
(g2284
g20
(lp2786
F0.004123
aF0.00602
aF0.008201
aF0.010489
aF0.013379
aF0.016997
aF0.021464
aF0.027371
aF0.034195
aF0.044807
aF0.058939
aF0.125497
atp2787
Rp2788
(dp2789
g14
I00
sg32
I01
sg15
I00
sbsS'HFdepthOneParameterB'
p2790
g0
(g2284
g20
(lp2791
F-4e-06
aF-2e-06
aF0.0
aF4e-06
aF1.5e-05
aF2.6e-05
aF6.3e-05
aF8.4e-05
aF0.00016
aF0.000107
aF0.000425
aF0.000209
atp2792
Rp2793
(dp2794
g14
I00
sg32
I01
sg15
I00
sbsS'HFdepthTwoParameterB'
p2795
g0
(g2284
g20
(lp2796
F-2e-06
aF-0.0
aF-7e-06
aF-6e-06
aF-2e-06
aF1e-06
aF1.9e-05
aF3.1e-05
aF6.7e-05
aF1.2e-05
aF0.000157
aF-3e-06
atp2797
Rp2798
(dp2799
g14
I00
sg32
I01
sg15
I00
sbsg11
(lp2800
g2785
ag2790
ag2795
ag2780
asg34
g2776
sbsS'trackerGeometryDB'
p2801
g0
(g7
g2
Ntp2802
Rp2803
(dp2804
g11
(lp2805
g2246
aS'fromDDD'
p2806
ag2305
aS'alignmentsLabel'
p2807
asg14
I00
sg2246
g0
(g101
g2
Ntp2808
Rp2809
(dp2810
g14
I00
sg32
I01
sg105
g77
sg15
I00
sbsg15
I00
sg2807
g0
(g101
g2
Ntp2811
Rp2812
(dp2813
g14
I00
sg32
I01
sg105
g77
sg15
I00
sbsg17
g18
sg16
I52
sg34
g2801
sg2806
g0
(g321
g2
Ntp2814
Rp2815
(dp2816
g14
I00
sg32
I01
sg105
I00
sg15
I00
sbsg2305
g0
(g321
g2
Ntp2817
Rp2818
(dp2819
g14
I00
sg32
I01
sg105
I01
sg15
I00
sbsg35
S'TrackerDigiGeometryESModule'
p2820
sbsS'eegeom'
p2821
g0
(g2348
g2
Ntp2822
Rp2823
(dp2824
g11
(lp2825
S'iovIsRunNotTime'
p2826
aS'recordName'
p2827
aS'firstValid'
p2828
asg14
I00
sg15
I00
sg16
I6
sg2827
g0
(g101
g2
Ntp2829
Rp2830
(dp2831
g14
I00
sg32
I01
sg105
S'EcalMappingRcd'
p2832
sg15
I00
sbsg17
S'/cvmfs/cms.cern.ch/slc6_amd64_gcc530/cms/cmssw/CMSSW_9_2_8/python/Geometry/EcalMapping/EcalMappingRecord_cfi.py'
p2833
sg2828
g0
(cFWCore.ParameterSet.Types
vuint32
p2834
g20
(lp2835
I1
atp2836
Rp2837
(dp2838
g14
I00
sg32
I01
sg15
I00
sbsg34
g2821
sg2826
g0
(g321
g2
Ntp2839
Rp2840
(dp2841
g14
I00
sg32
I01
sg105
I01
sg15
I00
sbsg35
S'EmptyESSource'
p2842
sbsg2206
g338
sS'mvaEleID_Spring15_50ns_Trig_V1_wp80'
p2843
g0
(g85
g2
Ntp2844
Rp2845
(dp2846
g14
I00
sg32
I01
sg15
I01
sg355
g0
(g101
g2
Ntp2847
Rp2848
(dp2849
g14
I00
sg32
I01
sg105
S'mvaEleID-Spring15-50ns-Trig-V1-wp80'
p2850
sg15
I00
sbsg360
g0
(g83
g20
(lp2851
g0
(g85
g2
Ntp2852
Rp2853
(dp2854
g14
I00
sg32
I01
sg2264
g0
(g68
g2
Ntp2855
Rp2856
(dp2857
g14
I00
sg32
I01
sg15
I00
sg72
S'electronMVAValueMapProducer'
p2858
sg74
g77
sg76
S'ElectronMVAEstimatorRun2Spring15Trig50nsV1Values'
p2859
sbsg2270
g0
(g68
g2
Ntp2860
Rp2861
(dp2862
g14
I00
sg32
I01
sg15
I00
sg72
S'electronMVAValueMapProducer'
p2863
sg74
g77
sg76
S'ElectronMVAEstimatorRun2Spring15Trig50nsV1Categories'
p2864
sbsg365
g0
(g101
g2
Ntp2865
Rp2866
(dp2867
g14
I00
sg32
I01
sg105
g2279
sg15
I00
sbsg370
g0
(g321
g2
Ntp2868
Rp2869
(dp2870
g14
I00
sg32
I01
sg105
I01
sg15
I00
sbsg2283
g0
(g2284
g20
(lp2871
F0.981841
aF0.946762
aF0.79704
atp2872
Rp2873
(dp2874
g14
I00
sg32
I01
sg15
I00
sbsg374
g0
(g321
g2
Ntp2875
Rp2876
(dp2877
g14
I00
sg32
I01
sg105
I00
sg15
I00
sbsg11
(lp2878
g2264
ag2270
ag365
ag370
ag2283
ag374
asg15
I00
sbatp2879
Rp2880
(dp2881
g14
I00
sg32
I01
sg15
I00
sg33
I1
sbsg728
g0
(g321
g2
Ntp2882
Rp2883
(dp2884
g14
I00
sg32
I00
sg105
I01
sg15
I00
sbsg11
(lp2885
g355
ag360
ag728
asg34
g2843
sbsg2501
g0
(cFWCore.ParameterSet.SequenceTypes
Path
p2886
g2
Ntp2887
Rp2888
(dp2889
g14
I00
sg43
g0
(g2475
g2
Ntp2890
Rp2891
(dp2892
g55
(lp2893
g0
(cFWCore.ParameterSet.Modules
EDFilter
p2894
g2
Ntp2895
Rp2896
(dp2897
g14
I00
sg16
I102
sS'looseMap'
p2898
g0
(g68
g2
Ntp2899
Rp2900
(dp2901
g14
I00
sg32
I01
sg15
I00
sg72
S'egmGsfElectronIDs'
p2902
sg76
S'cutBasedElectronID-Summer16-80X-V1-loose'
p2903
sg74
g77
sbsS'useMC'
p2904
g0
(g321
g2
Ntp2905
Rp2906
(dp2907
g14
I00
sg32
I01
sg105
I00
sg15
I00
sbsS'TagPassID'
p2908
g0
(g101
g2
Ntp2909
Rp2910
(dp2911
g14
I00
sg32
I01
sg105
S'tight'
p2912
sg15
I00
sbsS'tightMap'
p2913
g0
(g68
g2
Ntp2914
Rp2915
(dp2916
g14
I00
sg32
I01
sg15
I00
sg72
S'egmGsfElectronIDs'
p2917
sg76
S'cutBasedElectronID-Summer16-80X-V1-tight'
p2918
sg74
g77
sbsS'triggerCache'
p2919
g0
(g83
g20
(lp2920
g0
(g85
g2
Ntp2921
Rp2922
(dp2923
g14
I00
sg32
I01
sg15
I00
sg11
(lp2924
S'FilterName'
p2925
aS'HLTName'
p2926
asg2925
g0
(g101
g2
Ntp2927
Rp2928
(dp2929
g14
I00
sg32
I01
sg105
S'hltEle40noerWPTightGsfTrackIsoFilter'
p2930
sg15
I00
sbsg2926
g0
(g101
g2
Ntp2931
Rp2932
(dp2933
g14
I00
sg32
I01
sg105
S'HLT_Ele40_WPTight_Gsf_v*'
p2934
sg15
I00
sbsbag0
(g85
g2
Ntp2935
Rp2936
(dp2937
g14
I00
sg32
I01
sg15
I00
sg11
(lp2938
g2925
ag2926
asg2925
g0
(g101
g2
Ntp2939
Rp2940
(dp2941
g14
I00
sg32
I01
sg105
S'hltEle27WPTightGsfTrackIsoFilter'
p2942
sg15
I00
sbsg2926
g0
(g101
g2
Ntp2943
Rp2944
(dp2945
g14
I00
sg32
I01
sg105
S'HLT_Ele27_WPTight_Gsf*'
p2946
sg15
I00
sbsbatp2947
Rp2948
(dp2949
g14
I00
sg32
I01
sg15
I00
sg33
I1
sbsS'probePtMin'
p2950
g0
(g380
g2
Ntp2951
Rp2952
(dp2953
g14
I00
sg32
I01
sg105
I8
sg15
I00
sbsg35
S'ElFltr'
p2954
sg11
(lp2955
S'Zmassmax'
p2956
aS'HLTInputTag'
p2957
aS'vtxsrc'
p2958
aS'Zmassmin'
p2959
aS'musrc'
p2960
aS'elsrc'
p2961
aS'HLTObjectsInputTag'
p2962
aS'tagEtaMax'
p2963
ag2950
aS'tagPtMin'
p2964
aS'probeImpact'
p2965
aS'mediumMap'
p2966
ag2908
ag2913
aS'heepMap'
p2967
ag2919
ag2898
aS'ProbePassID'
p2968
aS'probeEtaMax'
p2969
aS'tagImpact'
p2970
ag2904
asg17
g2496
sg2965
g0
(g321
g2
Ntp2971
Rp2972
(dp2973
g14
I00
sg32
I01
sg105
I01
sg15
I00
sbsg2959
g0
(g380
g2
Ntp2974
Rp2975
(dp2976
g14
I00
sg32
I01
sg105
I60
sg15
I00
sbsg2960
g0
(g68
g2
Ntp2977
Rp2978
(dp2979
g14
I00
sg32
I01
sg15
I00
sg72
S'slimmedMuons'
p2980
sg76
g77
sg74
g77
sbsg2968
g0
(g101
g2
Ntp2981
Rp2982
(dp2983
g14
I00
sg32
I01
sg105
g2912
sg15
I00
sbsg2969
g0
(g380
g2
Ntp2984
Rp2985
(dp2986
g14
I00
sg32
I01
sg105
F2.5
sg15
I00
sbsg2956
g0
(g380
g2
Ntp2987
Rp2988
(dp2989
g14
I00
sg32
I01
sg105
I120
sg15
I00
sbsg2963
g0
(g380
g2
Ntp2990
Rp2991
(dp2992
g14
I00
sg32
I01
sg105
F2.5
sg15
I00
sbsg2964
g0
(g380
g2
Ntp2993
Rp2994
(dp2995
g14
I00
sg32
I01
sg105
I30
sg15
I00
sbsg2958
g0
(g68
g2
Ntp2996
Rp2997
(dp2998
g14
I00
sg32
I01
sg15
I00
sg72
g2137
sg76
g77
sg74
g77
sbsg2966
g0
(g68
g2
Ntp2999
Rp3000
(dp3001
g14
I00
sg32
I01
sg15
I00
sg72
S'egmGsfElectronIDs'
p3002
sg76
S'cutBasedElectronID-Summer16-80X-V1-medium'
p3003
sg74
g77
sbsg2962
g0
(g68
g2
Ntp3004
Rp3005
(dp3006
g14
I00
sg32
I01
sg15
I00
sg72
S'slimmedPatTrigger'
p3007
sg76
g77
sg74
g77
sbsg2970
g0
(g321
g2
Ntp3008
Rp3009
(dp3010
g14
I00
sg32
I01
sg105
I01
sg15
I00
sbsg2967
g0
(g68
g2
Ntp3011
Rp3012
(dp3013
g14
I00
sg32
I01
sg15
I00
sg72
S'egmGsfElectronIDs'
p3014
sg76
S'heepElectronID-HEEPV60'
p3015
sg74
g77
sbsg15
I00
sg2957
g0
(g68
g2
Ntp3016
Rp3017
(dp3018
g14
I00
sg32
I01
sg15
I00
sg72
S'TriggerResults'
p3019
sg76
g77
sg74
S'HLT'
p3020
sbsg2961
g0
(g68
g2
Ntp3021
Rp3022
(dp3023
g14
I00
sg32
I01
sg15
I00
sg72
g73
sg76
g77
sg74
g77
sbsg34
S'datafltr'
p3024
sbasbsg34
g2501
sg15
I00
sg44
g0
(g45
g2
Ntp3025
Rp3026
(dp3027
g49
(dp3028
sg2208
(lp3029
Nag3029
ag3029
asbsbsS'_Process__vpsets'
p3030
(dp3031
g279
g277
ssS'EcalTrigTowerConstituentsMapBuilder'
p3032
g0
(g7
g2
Ntp3033
Rp3034
(dp3035
g11
(lp3036
S'MapFile'
p3037
asg14
I00
sg15
I00
sg3037
g0
(g101
g2
Ntp3038
Rp3039
(dp3040
g14
I00
sg32
I00
sg105
S'Geometry/EcalMapping/data/EndCap_TTMap.txt'
p3041
sg15
I00
sbsg17
g18
sg16
I52
sg34
g3032
sg35
g3032
sbsS'siStripBackPlaneCorrectionDepESProducer'
p3042
g0
(g7
g2
Ntp3043
Rp3044
(dp3045
g11
(lp3046
S'LatencyRecord'
p3047
aS'BackPlaneCorrectionDeconvMode'
p3048
aS'BackPlaneCorrectionPeakMode'
p3049
asg14
I00
sg15
I00
sg16
I52
sg17
g18
sg3047
g0
(g85
g2
Ntp3050
Rp3051
(dp3052
g14
I00
sg32
I01
sg15
I00
sg2231
g0
(g101
g2
Ntp3053
Rp3054
(dp3055
g14
I00
sg32
I00
sg105
g77
sg15
I00
sbsg2322
g0
(g101
g2
Ntp3056
Rp3057
(dp3058
g14
I00
sg32
I01
sg105
S'SiStripLatencyRcd'
p3059
sg15
I00
sbsg11
(lp3060
g2322
ag2231
asbsg3049
g0
(g85
g2
Ntp3061
Rp3062
(dp3063
g14
I00
sg32
I01
sg15
I00
sg2231
g0
(g101
g2
Ntp3064
Rp3065
(dp3066
g14
I00
sg32
I00
sg105
S'peak'
p3067
sg15
I00
sbsg2322
g0
(g101
g2
Ntp3068
Rp3069
(dp3070
g14
I00
sg32
I01
sg105
S'SiStripBackPlaneCorrectionRcd'
p3071
sg15
I00
sbsg11
(lp3072
g2322
ag2231
asbsg34
g3042
sg3048
g0
(g85
g2
Ntp3073
Rp3074
(dp3075
g14
I00
sg32
I01
sg15
I00
sg2231
g0
(g101
g2
Ntp3076
Rp3077
(dp3078
g14
I00
sg32
I00
sg105
S'deconvolution'
p3079
sg15
I00
sbsg2322
g0
(g101
g2
Ntp3080
Rp3081
(dp3082
g14
I00
sg32
I01
sg105
g3071
sg15
I00
sbsg11
(lp3083
g2322
ag2231
asbsg35
S'SiStripBackPlaneCorrectionDepESProducer'
p3084
sbsS'_Process__esprefers'
p3085
(dp3086
S'es_prefer_hcalHardcode'
p3087
g0
(cFWCore.ParameterSet.Modules
ESPrefer
p3088
g2
Ntp3089
Rp3090
(dp3091
g11
(lp3092
sg14
I00
sg15
I00
sS'_targetLabel'
p3093
S'es_hardcode'
p3094
sg16
I88
sg17
g18
sg34
g3087
sg35
S'HcalHardcodeCalibrations'
p3095
sbssg245
g213
sS'_Process__isStrict'
p3096
I00
sS'_Process__outputmodules'
p3097
(dp3098
g2506
g2482
ssS'_Process__analyzers'
p3099
(dp3100
sS'mvaEleID_PHYS14_PU20bx25_nonTrig_V1_wp80'
p3101
g0
(g85
g2
Ntp3102
Rp3103
(dp3104
g14
I00
sg32
I01
sg15
I01
sg355
g0
(g101
g2
Ntp3105
Rp3106
(dp3107
g14
I00
sg32
I01
sg105
S'mvaEleID-PHYS14-PU20bx25-nonTrig-V1-wp80'
p3108
sg15
I00
sbsg360
g0
(g83
g20
(lp3109
g0
(g85
g2
Ntp3110
Rp3111
(dp3112
g14
I00
sg32
I01
sg2264
g0
(g68
g2
Ntp3113
Rp3114
(dp3115
g14
I00
sg32
I01
sg15
I00
sg72
S'electronMVAValueMapProducer'
p3116
sg74
g77
sg76
S'ElectronMVAEstimatorRun2Phys14NonTrig25nsV1Values'
p3117
sbsg2270
g0
(g68
g2
Ntp3118
Rp3119
(dp3120
g14
I00
sg32
I01
sg15
I00
sg72
S'electronMVAValueMapProducer'
p3121
sg74
g77
sg76
S'ElectronMVAEstimatorRun2Phys14NonTrig25nsV1Categories'
p3122
sbsg365
g0
(g101
g2
Ntp3123
Rp3124
(dp3125
g14
I00
sg32
I01
sg105
g2279
sg15
I00
sbsg370
g0
(g321
g2
Ntp3126
Rp3127
(dp3128
g14
I00
sg32
I01
sg105
I01
sg15
I00
sbsg2283
g0
(g2284
g20
(lp3129
F-0.253
aF0.081
aF-0.081
aF0.965
aF0.917
aF0.683
atp3130
Rp3131
(dp3132
g14
I00
sg32
I01
sg15
I00
sbsg374
g0
(g321
g2
Ntp3133
Rp3134
(dp3135
g14
I00
sg32
I01
sg105
I00
sg15
I00
sbsg11
(lp3136
g2264
ag2270
ag365
ag370
ag2283
ag374
asg15
I00
sbatp3137
Rp3138
(dp3139
g14
I00
sg32
I01
sg15
I00
sg33
I1
sbsg728
g0
(g321
g2
Ntp3140
Rp3141
(dp3142
g14
I00
sg32
I00
sg105
I00
sg15
I00
sbsg11
(lp3143
g355
ag360
ag728
asg34
g3101
sbsg38
g41
sS'idealForDigiTrackerGeometry'
p3144
g0
(g7
g2
Ntp3145
Rp3146
(dp3147
g11
(lp3148
g2246
ag2806
ag2305
ag2807
asg14
I00
sg2246
g0
(g101
g2
Ntp3149
Rp3150
(dp3151
g14
I00
sg32
I01
sg105
S'idealForDigi'
p3152
sg15
I01
sbsg15
I01
sg2807
g0
(g101
g2
Ntp3153
Rp3154
(dp3155
g14
I00
sg32
I01
sg105
S'fakeForIdeal'
p3156
sg15
I01
sbsg17
S'/cvmfs/cms.cern.ch/slc6_amd64_gcc530/cms/cmssw/CMSSW_9_2_8/python/Geometry/TrackerGeometryBuilder/idealForDigiTrackerGeometryDB_cff.py'
p3157
sg16
I8
sg34
g3144
sg2806
g0
(g321
g2
Ntp3158
Rp3159
(dp3160
g14
I00
sg32
I01
sg105
I00
sg15
I00
sbsg2305
g0
(g321
g2
Ntp3161
Rp3162
(dp3163
g14
I00
sg32
I01
sg105
I00
sg15
I01
sbsg35
g2820
sbsS'_Process__looper'
p3164
NsS'_Process__tasks'
p3165
(dp3166
g2209
g53
ssS'_Process__paths'
p3167
g0
(g2467
g2468
(dp3168
g2501
g2888
stp3169
Rp3170
(dp3171
g2520
(lp3172
g2501
asbsg211
g184
sS'MuonNumberingInitialization'
p3173
g0
(g7
g2
Ntp3174
Rp3175
(dp3176
g11
(lp3177
sg14
I00
sg15
I00
sg16
I52
sg17
g18
sg34
g3173
sg35
g3173
sbsS'options'
p3178
g0
(g85
g2
Ntp3179
Rp3180
(dp3181
g14
I00
sg32
I00
sg15
I00
sS'wantSummary'
p3182
g0
(g321
g2
Ntp3183
Rp3184
(dp3185
g14
I00
sg32
I00
sg105
I01
sg15
I00
sbsg11
(lp3186
g3182
asg34
g3178
sbsS'DTGeometryESModule'
p3187
g0
(g7
g2
Ntp3188
Rp3189
(dp3190
g11
(lp3191
g2246
ag2806
ag2305
ag2807
asg14
I00
sg2246
g0
(g101
g2
Ntp3192
Rp3193
(dp3194
g14
I00
sg32
I01
sg105
g77
sg15
I00
sbsg15
I00
sg2807
g0
(g101
g2
Ntp3195
Rp3196
(dp3197
g14
I00
sg32
I01
sg105
g77
sg15
I00
sbsg17
g18
sg16
I52
sg34
g3187
sg2806
g0
(g321
g2
Ntp3198
Rp3199
(dp3200
g14
I00
sg32
I01
sg105
I00
sg15
I00
sbsg2305
g0
(g321
g2
Ntp3201
Rp3202
(dp3203
g14
I00
sg32
I01
sg105
I01
sg15
I00
sbsg35
g3187
sbsS'VolumeBasedMagneticFieldESProducer'
p3204
g0
(g7
g2
Ntp3205
Rp3206
(dp3207
g11
(lp3208
S'valueOverride'
p3209
aS'debugBuilder'
p3210
ag2231
asg14
I00
sg3209
g0
(g566
g2
Ntp3211
Rp3212
(dp3213
g14
I00
sg32
I01
sg105
I18268
sg15
I01
sbsg16
I52
sg17
g18
sg2231
g0
(g101
g2
Ntp3214
Rp3215
(dp3216
g14
I00
sg32
I00
sg105
g77
sg15
I00
sbsg3210
g0
(g321
g2
Ntp3217
Rp3218
(dp3219
g14
I00
sg32
I00
sg105
I00
sg15
I00
sbsg34
g3204
sg35
S'VolumeBasedMagneticFieldESProducerFromDB'
p3220
sg15
I01
sbsS'mvaEleID_Spring15_25ns_Trig_V1_wp90'
p3221
g0
(g85
g2
Ntp3222
Rp3223
(dp3224
g14
I00
sg32
I01
sg15
I01
sg355
g0
(g101
g2
Ntp3225
Rp3226
(dp3227
g14
I00
sg32
I01
sg105
S'mvaEleID-Spring15-25ns-Trig-V1-wp90'
p3228
sg15
I00
sbsg360
g0
(g83
g20
(lp3229
g0
(g85
g2
Ntp3230
Rp3231
(dp3232
g14
I00
sg32
I01
sg2264
g0
(g68
g2
Ntp3233
Rp3234
(dp3235
g14
I00
sg32
I01
sg15
I00
sg72
S'electronMVAValueMapProducer'
p3236
sg74
g77
sg76
S'ElectronMVAEstimatorRun2Spring15Trig25nsV1Values'
p3237
sbsg2270
g0
(g68
g2
Ntp3238
Rp3239
(dp3240
g14
I00
sg32
I01
sg15
I00
sg72
S'electronMVAValueMapProducer'
p3241
sg74
g77
sg76
S'ElectronMVAEstimatorRun2Spring15Trig25nsV1Categories'
p3242
sbsg365
g0
(g101
g2
Ntp3243
Rp3244
(dp3245
g14
I00
sg32
I01
sg105
g2279
sg15
I00
sbsg370
g0
(g321
g2
Ntp3246
Rp3247
(dp3248
g14
I00
sg32
I01
sg105
I01
sg15
I00
sbsg2283
g0
(g2284
g20
(lp3249
F0.972153
aF0.922126
aF0.610764
atp3250
Rp3251
(dp3252
g14
I00
sg32
I01
sg15
I00
sbsg374
g0
(g321
g2
Ntp3253
Rp3254
(dp3255
g14
I00
sg32
I01
sg105
I00
sg15
I00
sbsg11
(lp3256
g2264
ag2270
ag365
ag370
ag2283
ag374
asg15
I00
sbatp3257
Rp3258
(dp3259
g14
I00
sg32
I01
sg15
I00
sg33
I1
sbsg728
g0
(g321
g2
Ntp3260
Rp3261
(dp3262
g14
I00
sg32
I00
sg105
I01
sg15
I00
sbsg11
(lp3263
g355
ag360
ag728
asg34
g3221
sbsS'CaloTopologyBuilder'
p3264
g0
(g7
g2
Ntp3265
Rp3266
(dp3267
g11
(lp3268
sg14
I00
sg15
I00
sg16
I52
sg17
g18
sg34
g3264
sg35
g3264
sbsS'mvaEleID_PHYS14_PU20bx25_nonTrig_V1_wp90'
p3269
g0
(g85
g2
Ntp3270
Rp3271
(dp3272
g14
I00
sg32
I01
sg15
I01
sg355
g0
(g101
g2
Ntp3273
Rp3274
(dp3275
g14
I00
sg32
I01
sg105
S'mvaEleID-PHYS14-PU20bx25-nonTrig-V1-wp90'
p3276
sg15
I00
sbsg360
g0
(g83
g20
(lp3277
g0
(g85
g2
Ntp3278
Rp3279
(dp3280
g14
I00
sg32
I01
sg2264
g0
(g68
g2
Ntp3281
Rp3282
(dp3283
g14
I00
sg32
I01
sg15
I00
sg72
S'electronMVAValueMapProducer'
p3284
sg74
g77
sg76
S'ElectronMVAEstimatorRun2Phys14NonTrig25nsV1Values'
p3285
sbsg2270
g0
(g68
g2
Ntp3286
Rp3287
(dp3288
g14
I00
sg32
I01
sg15
I00
sg72
S'electronMVAValueMapProducer'
p3289
sg74
g77
sg76
S'ElectronMVAEstimatorRun2Phys14NonTrig25nsV1Categories'
p3290
sbsg365
g0
(g101
g2
Ntp3291
Rp3292
(dp3293
g14
I00
sg32
I01
sg105
g2279
sg15
I00
sbsg370
g0
(g321
g2
Ntp3294
Rp3295
(dp3296
g14
I00
sg32
I01
sg105
I01
sg15
I00
sbsg2283
g0
(g2284
g20
(lp3297
F-0.483
aF-0.267
aF-0.323
aF0.933
aF0.825
aF0.337
atp3298
Rp3299
(dp3300
g14
I00
sg32
I01
sg15
I00
sbsg374
g0
(g321
g2
Ntp3301
Rp3302
(dp3303
g14
I00
sg32
I01
sg105
I00
sg15
I00
sbsg11
(lp3304
g2264
ag2270
ag365
ag370
ag2283
ag374
asg15
I00
sbatp3305
Rp3306
(dp3307
g14
I00
sg32
I01
sg15
I00
sg33
I1
sbsg728
g0
(g321
g2
Ntp3308
Rp3309
(dp3310
g14
I00
sg32
I00
sg105
I00
sg15
I00
sbsg11
(lp3311
g355
ag360
ag728
asg34
g3269
sbsS'SiStripRecHitMatcherESProducer'
p3312
g0
(g7
g2
Ntp3313
Rp3314
(dp3315
g11
(lp3316
S'PreFilter'
p3317
aS'ComponentName'
p3318
aS'NSigmaInside'
p3319
asg14
I00
sg15
I00
sg17
g18
sg3318
g0
(g101
g2
Ntp3320
Rp3321
(dp3322
g14
I00
sg32
I01
sg105
S'StandardMatcher'
p3323
sg15
I00
sbsg3317
g0
(g321
g2
Ntp3324
Rp3325
(dp3326
g14
I00
sg32
I01
sg105
I00
sg15
I00
sbsg16
I52
sg3319
g0
(g380
g2
Ntp3327
Rp3328
(dp3329
g14
I00
sg32
I01
sg105
F3.0
sg15
I00
sbsg34
g3312
sg35
g3312
sbsS'_Process__psets'
p3330
(dp3331
g245
g213
sg151
g115
sg3221
g3223
sS'mvaEleID_Spring15_25ns_nonTrig_V1_wpLoose'
p3332
g0
(g85
g2
Ntp3333
Rp3334
(dp3335
g14
I00
sg32
I01
sg15
I01
sg355
g0
(g101
g2
Ntp3336
Rp3337
(dp3338
g14
I00
sg32
I01
sg105
S'mvaEleID-Spring15-25ns-nonTrig-V1-wpLoose'
p3339
sg15
I00
sbsg360
g0
(g83
g20
(lp3340
g0
(g85
g2
Ntp3341
Rp3342
(dp3343
g14
I00
sg32
I01
sg2264
g0
(g68
g2
Ntp3344
Rp3345
(dp3346
g14
I00
sg32
I01
sg15
I00
sg72
S'electronMVAValueMapProducer'
p3347
sg74
g77
sg76
S'ElectronMVAEstimatorRun2Spring15NonTrig25nsV1Values'
p3348
sbsg2270
g0
(g68
g2
Ntp3349
Rp3350
(dp3351
g14
I00
sg32
I01
sg15
I00
sg72
S'electronMVAValueMapProducer'
p3352
sg74
g77
sg76
S'ElectronMVAEstimatorRun2Spring15NonTrig25nsV1Categories'
p3353
sbsg365
g0
(g101
g2
Ntp3354
Rp3355
(dp3356
g14
I00
sg32
I01
sg105
g2279
sg15
I00
sbsg370
g0
(g321
g2
Ntp3357
Rp3358
(dp3359
g14
I00
sg32
I01
sg105
I01
sg15
I00
sbsg2283
g0
(g2284
g20
(lp3360
F-0.265
aF-0.556
aF-0.551
aF-0.072
aF-0.286
aF-0.267
atp3361
Rp3362
(dp3363
g14
I00
sg32
I01
sg15
I00
sbsg374
g0
(g321
g2
Ntp3364
Rp3365
(dp3366
g14
I00
sg32
I01
sg105
I00
sg15
I00
sbsg11
(lp3367
g2264
ag2270
ag365
ag370
ag2283
ag374
asg15
I00
sbatp3368
Rp3369
(dp3370
g14
I00
sg32
I01
sg15
I00
sg33
I1
sbsg728
g0
(g321
g2
Ntp3371
Rp3372
(dp3373
g14
I00
sg32
I00
sg105
I01
sg15
I00
sbsg11
(lp3374
g355
ag360
ag728
asg34
g3332
sbsg2423
g2425
sS'mvaEleID_Spring15_25ns_nonTrig_V1_wp80'
p3375
g0
(g85
g2
Ntp3376
Rp3377
(dp3378
g14
I00
sg32
I01
sg15
I01
sg355
g0
(g101
g2
Ntp3379
Rp3380
(dp3381
g14
I00
sg32
I01
sg105
S'mvaEleID-Spring15-25ns-nonTrig-V1-wp80'
p3382
sg15
I00
sbsg360
g0
(g83
g20
(lp3383
g0
(g85
g2
Ntp3384
Rp3385
(dp3386
g14
I00
sg32
I01
sg2264
g0
(g68
g2
Ntp3387
Rp3388
(dp3389
g14
I00
sg32
I01
sg15
I00
sg72
S'electronMVAValueMapProducer'
p3390
sg74
g77
sg76
S'ElectronMVAEstimatorRun2Spring15NonTrig25nsV1Values'
p3391
sbsg2270
g0
(g68
g2
Ntp3392
Rp3393
(dp3394
g14
I00
sg32
I01
sg15
I00
sg72
S'electronMVAValueMapProducer'
p3395
sg74
g77
sg76
S'ElectronMVAEstimatorRun2Spring15NonTrig25nsV1Categories'
p3396
sbsg365
g0
(g101
g2
Ntp3397
Rp3398
(dp3399
g14
I00
sg32
I01
sg105
g2279
sg15
I00
sbsg370
g0
(g321
g2
Ntp3400
Rp3401
(dp3402
g14
I00
sg32
I01
sg105
I01
sg15
I00
sbsg2283
g0
(g2284
g20
(lp3403
F0.287435
aF0.221846
aF-0.303263
aF0.967083
aF0.929117
aF0.726311
atp3404
Rp3405
(dp3406
g14
I00
sg32
I01
sg15
I00
sbsg374
g0
(g321
g2
Ntp3407
Rp3408
(dp3409
g14
I00
sg32
I01
sg105
I00
sg15
I00
sbsg11
(lp3410
g2264
ag2270
ag365
ag370
ag2283
ag374
asg15
I00
sbatp3411
Rp3412
(dp3413
g14
I00
sg32
I01
sg15
I00
sg33
I1
sbsg728
g0
(g321
g2
Ntp3414
Rp3415
(dp3416
g14
I00
sg32
I00
sg105
I01
sg15
I00
sbsg11
(lp3417
g355
ag360
ag728
asg34
g3375
sbsg182
g153
sS'mvaEleID_Spring15_25ns_Trig_V1_wp80'
p3418
g0
(g85
g2
Ntp3419
Rp3420
(dp3421
g14
I00
sg32
I01
sg15
I01
sg355
g0
(g101
g2
Ntp3422
Rp3423
(dp3424
g14
I00
sg32
I01
sg105
S'mvaEleID-Spring15-25ns-Trig-V1-wp80'
p3425
sg15
I00
sbsg360
g0
(g83
g20
(lp3426
g0
(g85
g2
Ntp3427
Rp3428
(dp3429
g14
I00
sg32
I01
sg2264
g0
(g68
g2
Ntp3430
Rp3431
(dp3432
g14
I00
sg32
I01
sg15
I00
sg72
S'electronMVAValueMapProducer'
p3433
sg74
g77
sg76
S'ElectronMVAEstimatorRun2Spring15Trig25nsV1Values'
p3434
sbsg2270
g0
(g68
g2
Ntp3435
Rp3436
(dp3437
g14
I00
sg32
I01
sg15
I00
sg72
S'electronMVAValueMapProducer'
p3438
sg74
g77
sg76
S'ElectronMVAEstimatorRun2Spring15Trig25nsV1Categories'
p3439
sbsg365
g0
(g101
g2
Ntp3440
Rp3441
(dp3442
g14
I00
sg32
I01
sg105
g2279
sg15
I00
sbsg370
g0
(g321
g2
Ntp3443
Rp3444
(dp3445
g14
I00
sg32
I01
sg105
I01
sg15
I00
sbsg2283
g0
(g2284
g20
(lp3446
F0.988153
aF0.96791
aF0.841729
atp3447
Rp3448
(dp3449
g14
I00
sg32
I01
sg15
I00
sbsg374
g0
(g321
g2
Ntp3450
Rp3451
(dp3452
g14
I00
sg32
I01
sg105
I00
sg15
I00
sbsg11
(lp3453
g2264
ag2270
ag365
ag370
ag2283
ag374
asg15
I00
sbatp3454
Rp3455
(dp3456
g14
I00
sg32
I01
sg15
I00
sg33
I1
sbsg728
g0
(g321
g2
Ntp3457
Rp3458
(dp3459
g14
I00
sg32
I00
sg105
I01
sg15
I00
sbsg11
(lp3460
g355
ag360
ag728
asg34
g3418
sbsg2843
g2845
sS'maxEvents'
p3461
g0
(g85
g2
Ntp3462
Rp3463
(dp3464
g14
I00
sg32
I00
sg15
I00
sg11
(lp3465
S'input'
p3466
asg34
g3461
sg3466
g0
(g566
g2
Ntp3467
Rp3468
(dp3469
g14
I00
sg32
I00
sg105
I-1
sg15
I00
sbsbsg113
g87
sg211
g184
sg2252
g2254
sg275
g247
sg2776
g2778
sg3101
g3103
sg3178
g3180
sg3269
g3271
ssS'_Process__essources'
p3470
(dp3471
g3094
g0
(g2348
g2
Ntp3472
Rp3473
(dp3474
g14
I00
sg16
I155
sS'useHEUpgrade'
p3475
g0
(g321
g2
Ntp3476
Rp3477
(dp3478
g14
I00
sg32
I01
sg105
I00
sg15
I00
sbsS'HBRecalibration'
p3479
g0
(g321
g2
Ntp3480
Rp3481
(dp3482
g14
I00
sg32
I01
sg105
I00
sg15
I00
sbsS'useLayer0Weight'
p3483
g0
(g321
g2
Ntp3484
Rp3485
(dp3486
g14
I00
sg32
I01
sg105
I00
sg15
I00
sbsS'HEmeanenergies'
p3487
g0
(g601
g2
Ntp3488
Rp3489
(dp3490
g14
I00
sg32
I01
sg105
S'CalibCalorimetry/HcalPlugins/data/meanenergiesHE.txt'
p3491
sg15
I00
sbsg2776
g2778
sS'heUpgrade'
p3492
g0
(g85
g2
Ntp3493
Rp3494
(dp3495
g14
I00
sg32
I01
sS'qieType'
p3496
g0
(g566
g2
Ntp3497
Rp3498
(dp3499
g14
I00
sg32
I01
sg105
I2
sg15
I00
sbsg15
I00
sS'pedestalWidth'
p3500
g0
(g380
g2
Ntp3501
Rp3502
(dp3503
g14
I00
sg32
I01
sg105
F1.5
sg15
I00
sbsS'recoShape'
p3504
g0
(g566
g2
Ntp3505
Rp3506
(dp3507
g14
I00
sg32
I01
sg105
I203
sg15
I00
sbsS'darkCurrent'
p3508
g0
(g2284
g20
(lp3509
F0.01
aF0.015
atp3510
Rp3511
(dp3512
g14
I00
sg32
I01
sg15
I00
sbsS'qieOffset'
p3513
g0
(g2284
g20
(lp3514
F0.0
aF0.0
aF0.0
aF0.0
atp3515
Rp3516
(dp3517
g14
I00
sg32
I01
sg15
I00
sbsS'qieSlope'
p3518
g0
(g2284
g20
(lp3519
F0.05376
aF0.05376
aF0.05376
aF0.05376
atp3520
Rp3521
(dp3522
g14
I00
sg32
I01
sg15
I00
sbsS'radiationDamage'
p3523
g0
(g85
g2
Ntp3524
Rp3525
(dp3526
g14
I00
sg32
I01
sS'temperatureNew'
p3527
g0
(g380
g2
Ntp3528
Rp3529
(dp3530
g14
I00
sg32
I01
sg105
I5
sg15
I00
sbsg15
I00
sS'depVsNeutrons'
p3531
g0
(g2284
g20
(lp3532
F5.69e-11
aF7.9e-11
atp3533
Rp3534
(dp3535
g14
I00
sg32
I01
sg15
I00
sbsS'temperatureBase'
p3536
g0
(g380
g2
Ntp3537
Rp3538
(dp3539
g14
I00
sg32
I01
sg105
I20
sg15
I00
sbsS'depVsTemp'
p3540
g0
(g380
g2
Ntp3541
Rp3542
(dp3543
g14
I00
sg32
I01
sg105
F0.0631
sg15
I00
sbsS'intlumiOffset'
p3544
g0
(g380
g2
Ntp3545
Rp3546
(dp3547
g14
I00
sg32
I01
sg105
I75
sg15
I00
sbsg11
(lp3548
g3527
ag3531
ag3536
ag3540
ag3544
aS'intlumiToNeutrons'
p3549
asg3549
g0
(g380
g2
Ntp3550
Rp3551
(dp3552
g14
I00
sg32
I01
sg105
F29200000.0
sg15
I00
sbsbsS'doRadiationDamage'
p3553
g0
(g321
g2
Ntp3554
Rp3555
(dp3556
g14
I00
sg32
I01
sg105
I01
sg15
I00
sbsg11
(lp3557
g3496
ag3500
ag3504
aS'photoelectronsToAnalog'
p3558
ag3513
ag3518
ag3523
ag3553
ag3508
aS'pedestal'
p3559
aS'mcShape'
p3560
aS'gainWidth'
p3561
aS'gain'
p3562
asg3558
g0
(g380
g2
Ntp3563
Rp3564
(dp3565
g14
I00
sg32
I01
sg105
F44.0
sg15
I00
sbsg3559
g0
(g380
g2
Ntp3566
Rp3567
(dp3568
g14
I00
sg32
I01
sg105
F17.3
sg15
I00
sbsg3560
g0
(g566
g2
Ntp3569
Rp3570
(dp3571
g14
I00
sg32
I01
sg105
I203
sg15
I00
sbsg3561
g0
(g2284
g20
(lp3572
I0
atp3573
Rp3574
(dp3575
g14
I00
sg32
I01
sg15
I00
sbsg3562
g0
(g2284
g20
(lp3576
F0.0004393673110720562
atp3577
Rp3578
(dp3579
g14
I00
sg32
I01
sg15
I00
sbsbsg11
(lp3580
g2359
ag3479
ag3483
ag3487
ag2776
ag3492
aS'useHOUpgrade'
p3581
aS'killHE'
p3582
aS'useHBUpgrade'
p3583
aS'hbUpgrade'
p3584
aS'testHEPlan1'
p3585
aS'iLumi'
p3586
aS'testHFQIE10'
p3587
aS'HBmeanenergies'
p3588
ag3475
aS'GainWidthsForTrigPrims'
p3589
aS'HBreCalibCutoff'
p3590
aS'HFRecalibration'
p3591
aS'ho'
p3592
aS'hb'
p3593
aS'hf'
p3594
aS'he'
p3595
aS'HERecalibration'
p3596
aS'useHFUpgrade'
p3597
aS'HEreCalibCutoff'
p3598
aS'SiPMCharacteristics'
p3599
aS'hfUpgrade'
p3600
asg17
S'/cvmfs/cms.cern.ch/slc6_amd64_gcc530/cms/cmssw/CMSSW_9_2_8/python/CalibCalorimetry/HcalPlugins/Hcal_Conditions_forGlobalTag_cff.py'
p3601
sg3581
g0
(g321
g2
Ntp3602
Rp3603
(dp3604
g14
I00
sg32
I01
sg105
I01
sg15
I00
sbsg3582
g0
(g321
g2
Ntp3605
Rp3606
(dp3607
g14
I00
sg32
I01
sg105
I00
sg15
I00
sbsg3583
g0
(g321
g2
Ntp3608
Rp3609
(dp3610
g14
I00
sg32
I01
sg105
I00
sg15
I00
sbsg3584
g0
(g85
g2
Ntp3611
Rp3612
(dp3613
g14
I00
sg32
I01
sg3496
g0
(g566
g2
Ntp3614
Rp3615
(dp3616
g14
I00
sg32
I01
sg105
I2
sg15
I00
sbsg15
I00
sg3500
g0
(g380
g2
Ntp3617
Rp3618
(dp3619
g14
I00
sg32
I01
sg105
F1.5
sg15
I00
sbsg3504
g0
(g566
g2
Ntp3620
Rp3621
(dp3622
g14
I00
sg32
I01
sg105
I203
sg15
I00
sbsg3508
g0
(g2284
g20
(lp3623
F0.01
aF0.015
atp3624
Rp3625
(dp3626
g14
I00
sg32
I01
sg15
I00
sbsg3513
g0
(g2284
g20
(lp3627
F0.0
aF0.0
aF0.0
aF0.0
atp3628
Rp3629
(dp3630
g14
I00
sg32
I01
sg15
I00
sbsg3518
g0
(g2284
g20
(lp3631
F0.05376
aF0.05376
aF0.05376
aF0.05376
atp3632
Rp3633
(dp3634
g14
I00
sg32
I01
sg15
I00
sbsg3523
g0
(g85
g2
Ntp3635
Rp3636
(dp3637
g14
I00
sg32
I01
sg3527
g0
(g380
g2
Ntp3638
Rp3639
(dp3640
g14
I00
sg32
I01
sg105
I-5
sg15
I00
sbsg15
I00
sg3531
g0
(g2284
g20
(lp3641
F5.69e-11
aF7.9e-11
atp3642
Rp3643
(dp3644
g14
I00
sg32
I01
sg15
I00
sbsg3536
g0
(g380
g2
Ntp3645
Rp3646
(dp3647
g14
I00
sg32
I01
sg105
I20
sg15
I00
sbsg3540
g0
(g380
g2
Ntp3648
Rp3649
(dp3650
g14
I00
sg32
I01
sg105
F0.0631
sg15
I00
sbsg3544
g0
(g380
g2
Ntp3651
Rp3652
(dp3653
g14
I00
sg32
I01
sg105
I150
sg15
I00
sbsg11
(lp3654
g3527
ag3531
ag3536
ag3540
ag3544
ag3549
asg3549
g0
(g380
g2
Ntp3655
Rp3656
(dp3657
g14
I00
sg32
I01
sg105
F367000000.0
sg15
I00
sbsbsg3553
g0
(g321
g2
Ntp3658
Rp3659
(dp3660
g14
I00
sg32
I01
sg105
I01
sg15
I00
sbsg11
(lp3661
g3496
ag3500
ag3504
ag3558
ag3513
ag3518
ag3523
ag3553
ag3508
ag3559
ag3560
ag3561
ag3562
asg3558
g0
(g380
g2
Ntp3662
Rp3663
(dp3664
g14
I00
sg32
I01
sg105
F44.0
sg15
I00
sbsg3559
g0
(g380
g2
Ntp3665
Rp3666
(dp3667
g14
I00
sg32
I01
sg105
F17.3
sg15
I00
sbsg3560
g0
(g566
g2
Ntp3668
Rp3669
(dp3670
g14
I00
sg32
I01
sg105
I203
sg15
I00
sbsg3561
g0
(g2284
g20
(lp3671
I0
atp3672
Rp3673
(dp3674
g14
I00
sg32
I01
sg15
I00
sbsg3562
g0
(g2284
g20
(lp3675
F0.0004393673110720562
atp3676
Rp3677
(dp3678
g14
I00
sg32
I01
sg15
I00
sbsbsg35
g3095
sg3585
g0
(g321
g2
Ntp3679
Rp3680
(dp3681
g14
I00
sg32
I01
sg105
I00
sg15
I00
sbsg3586
g0
(g380
g2
Ntp3682
Rp3683
(dp3684
g14
I00
sg32
I01
sg105
F-1.0
sg15
I00
sbsg3587
g0
(g321
g2
Ntp3685
Rp3686
(dp3687
g14
I00
sg32
I01
sg105
I00
sg15
I00
sbsg3588
g0
(g601
g2
Ntp3688
Rp3689
(dp3690
g14
I00
sg32
I01
sg105
S'CalibCalorimetry/HcalPlugins/data/meanenergiesHB.txt'
p3691
sg15
I00
sbsg2359
g0
(g19
g20
(lp3692
S'GainWidths'
p3693
atp3694
Rp3695
(dp3696
g14
I00
sg32
I00
sg15
I00
sg33
I1
sbsg3589
g0
(g321
g2
Ntp3697
Rp3698
(dp3699
g14
I00
sg32
I01
sg105
I00
sg15
I00
sbsg3590
g0
(g380
g2
Ntp3700
Rp3701
(dp3702
g14
I00
sg32
I01
sg105
F20.0
sg15
I00
sbsg3591
g0
(g321
g2
Ntp3703
Rp3704
(dp3705
g14
I00
sg32
I01
sg105
I00
sg15
I00
sbsg3592
g0
(g85
g2
Ntp3706
Rp3707
(dp3708
g14
I00
sg32
I01
sg3496
g0
(g566
g2
Ntp3709
Rp3710
(dp3711
g14
I00
sg32
I01
sg105
I0
sg15
I00
sbsg15
I00
sg3500
g0
(g380
g2
Ntp3712
Rp3713
(dp3714
g14
I00
sg32
I01
sg105
F0.6285
sg15
I00
sbsg3504
g0
(g566
g2
Ntp3715
Rp3716
(dp3717
g14
I00
sg32
I01
sg105
I201
sg15
I00
sbsg3508
g0
(g2284
g20
(lp3718
F0.0
atp3719
Rp3720
(dp3721
g14
I00
sg32
I01
sg15
I00
sbsg3513
g0
(g2284
g20
(lp3722
F-0.44
aF1.4
aF7.1
aF38.5
atp3723
Rp3724
(dp3725
g14
I00
sg32
I01
sg15
I00
sbsg3518
g0
(g2284
g20
(lp3726
F0.907
aF0.915
aF0.92
aF0.921
atp3727
Rp3728
(dp3729
g14
I00
sg32
I01
sg15
I00
sbsg3562
g0
(g2284
g20
(lp3730
F0.006
aF0.0087
atp3731
Rp3732
(dp3733
g14
I00
sg32
I01
sg15
I00
sbsg3553
g0
(g321
g2
Ntp3734
Rp3735
(dp3736
g14
I00
sg32
I01
sg105
I00
sg15
I00
sbsg11
(lp3737
g3496
ag3500
ag3504
ag3558
ag3513
ag3518
ag3562
ag3553
ag3508
ag3559
ag3560
ag3561
asg3558
g0
(g380
g2
Ntp3738
Rp3739
(dp3740
g14
I00
sg32
I01
sg105
F4.0
sg15
I00
sbsg3559
g0
(g380
g2
Ntp3741
Rp3742
(dp3743
g14
I00
sg32
I01
sg105
F12.06
sg15
I00
sbsg3560
g0
(g566
g2
Ntp3744
Rp3745
(dp3746
g14
I00
sg32
I01
sg105
I201
sg15
I00
sbsg3561
g0
(g2284
g20
(lp3747
F0.0
aF0.0
atp3748
Rp3749
(dp3750
g14
I00
sg32
I01
sg15
I00
sbsbsg3593
g0
(g85
g2
Ntp3751
Rp3752
(dp3753
g14
I00
sg32
I01
sg3496
g0
(g566
g2
Ntp3754
Rp3755
(dp3756
g14
I00
sg32
I01
sg105
I0
sg15
I00
sbsg15
I00
sg3500
g0
(g380
g2
Ntp3757
Rp3758
(dp3759
g14
I00
sg32
I01
sg105
F0.809
sg15
I00
sbsg3504
g0
(g566
g2
Ntp3760
Rp3761
(dp3762
g14
I00
sg32
I01
sg105
I105
sg15
I00
sbsg3508
g0
(g2284
g20
(lp3763
F0.0
atp3764
Rp3765
(dp3766
g14
I00
sg32
I01
sg15
I00
sbsg3513
g0
(g2284
g20
(lp3767
F-0.49
aF1.8
aF7.2
aF37.9
atp3768
Rp3769
(dp3770
g14
I00
sg32
I01
sg15
I00
sbsg3518
g0
(g2284
g20
(lp3771
F0.912
aF0.917
aF0.922
aF0.923
atp3772
Rp3773
(dp3774
g14
I00
sg32
I01
sg15
I00
sbsg3562
g0
(g2284
g20
(lp3775
F0.19
atp3776
Rp3777
(dp3778
g14
I00
sg32
I01
sg15
I00
sbsg3553
g0
(g321
g2
Ntp3779
Rp3780
(dp3781
g14
I00
sg32
I01
sg105
I00
sg15
I00
sbsg11
(lp3782
g3496
ag3500
ag3504
ag3558
ag3513
ag3518
ag3562
ag3553
ag3508
ag3559
ag3560
ag3561
asg3558
g0
(g380
g2
Ntp3783
Rp3784
(dp3785
g14
I00
sg32
I01
sg105
F0.3305
sg15
I00
sbsg3559
g0
(g380
g2
Ntp3786
Rp3787
(dp3788
g14
I00
sg32
I01
sg105
F3.285
sg15
I00
sbsg3560
g0
(g566
g2
Ntp3789
Rp3790
(dp3791
g14
I00
sg32
I01
sg105
I125
sg15
I00
sbsg3561
g0
(g2284
g20
(lp3792
F0.0
atp3793
Rp3794
(dp3795
g14
I00
sg32
I01
sg15
I00
sbsbsg3594
g0
(g85
g2
Ntp3796
Rp3797
(dp3798
g14
I00
sg32
I01
sg3496
g0
(g566
g2
Ntp3799
Rp3800
(dp3801
g14
I00
sg32
I01
sg105
I0
sg15
I00
sbsg15
I00
sg3500
g0
(g380
g2
Ntp3802
Rp3803
(dp3804
g14
I00
sg32
I01
sg105
F2.516
sg15
I00
sbsg3504
g0
(g566
g2
Ntp3805
Rp3806
(dp3807
g14
I00
sg32
I01
sg105
I301
sg15
I00
sbsg3508
g0
(g2284
g20
(lp3808
F0.0
atp3809
Rp3810
(dp3811
g14
I00
sg32
I01
sg15
I00
sbsg3513
g0
(g2284
g20
(lp3812
F-0.87
aF1.4
aF7.8
aF-29.6
atp3813
Rp3814
(dp3815
g14
I00
sg32
I01
sg15
I00
sbsg3518
g0
(g2284
g20
(lp3816
F0.359
aF0.358
aF0.36
aF0.367
atp3817
Rp3818
(dp3819
g14
I00
sg32
I01
sg15
I00
sbsg3562
g0
(g2284
g20
(lp3820
F0.14
aF0.135
atp3821
Rp3822
(dp3823
g14
I00
sg32
I01
sg15
I00
sbsg3553
g0
(g321
g2
Ntp3824
Rp3825
(dp3826
g14
I00
sg32
I01
sg105
I00
sg15
I00
sbsg11
(lp3827
g3496
ag3500
ag3504
ag3558
ag3513
ag3518
ag3562
ag3553
ag3508
ag3559
ag3560
ag3561
asg3558
g0
(g380
g2
Ntp3828
Rp3829
(dp3830
g14
I00
sg32
I01
sg105
F0.0
sg15
I00
sbsg3559
g0
(g380
g2
Ntp3831
Rp3832
(dp3833
g14
I00
sg32
I01
sg105
F9.354
sg15
I00
sbsg3560
g0
(g566
g2
Ntp3834
Rp3835
(dp3836
g14
I00
sg32
I01
sg105
I301
sg15
I00
sbsg3561
g0
(g2284
g20
(lp3837
F0.0
aF0.0
atp3838
Rp3839
(dp3840
g14
I00
sg32
I01
sg15
I00
sbsbsg3595
g0
(g85
g2
Ntp3841
Rp3842
(dp3843
g14
I00
sg32
I01
sg3496
g0
(g566
g2
Ntp3844
Rp3845
(dp3846
g14
I00
sg32
I01
sg105
I0
sg15
I00
sbsg15
I00
sg3500
g0
(g380
g2
Ntp3847
Rp3848
(dp3849
g14
I00
sg32
I01
sg105
F0.9698
sg15
I00
sbsg3504
g0
(g566
g2
Ntp3850
Rp3851
(dp3852
g14
I00
sg32
I01
sg105
I105
sg15
I00
sbsg3508
g0
(g2284
g20
(lp3853
F0.0
atp3854
Rp3855
(dp3856
g14
I00
sg32
I01
sg15
I00
sbsg3513
g0
(g2284
g20
(lp3857
F-0.38
aF2.0
aF7.6
aF39.6
atp3858
Rp3859
(dp3860
g14
I00
sg32
I01
sg15
I00
sbsg3518
g0
(g2284
g20
(lp3861
F0.912
aF0.916
aF0.92
aF0.922
atp3862
Rp3863
(dp3864
g14
I00
sg32
I01
sg15
I00
sbsg3562
g0
(g2284
g20
(lp3865
F0.23
atp3866
Rp3867
(dp3868
g14
I00
sg32
I01
sg15
I00
sbsg3553
g0
(g321
g2
Ntp3869
Rp3870
(dp3871
g14
I00
sg32
I01
sg105
I00
sg15
I00
sbsg11
(lp3872
g3496
ag3500
ag3504
ag3558
ag3513
ag3518
ag3562
ag3553
ag3508
ag3559
ag3560
ag3561
asg3558
g0
(g380
g2
Ntp3873
Rp3874
(dp3875
g14
I00
sg32
I01
sg105
F0.3305
sg15
I00
sbsg3559
g0
(g380
g2
Ntp3876
Rp3877
(dp3878
g14
I00
sg32
I01
sg105
F3.163
sg15
I00
sbsg3560
g0
(g566
g2
Ntp3879
Rp3880
(dp3881
g14
I00
sg32
I01
sg105
I125
sg15
I00
sbsg3561
g0
(g2284
g20
(lp3882
I0
atp3883
Rp3884
(dp3885
g14
I00
sg32
I01
sg15
I00
sbsbsg15
I00
sg3596
g0
(g321
g2
Ntp3886
Rp3887
(dp3888
g14
I00
sg32
I01
sg105
I00
sg15
I00
sbsg3597
g0
(g321
g2
Ntp3889
Rp3890
(dp3891
g14
I00
sg32
I01
sg105
I00
sg15
I00
sbsg3598
g0
(g380
g2
Ntp3892
Rp3893
(dp3894
g14
I00
sg32
I01
sg105
F20.0
sg15
I00
sbsg3599
g0
(g83
g20
(lp3895
g0
(g85
g2
Ntp3896
Rp3897
(dp3898
g14
I00
sg32
I01
sg15
I00
sS'crosstalk'
p3899
g0
(g380
g2
Ntp3900
Rp3901
(dp3902
g14
I00
sg32
I01
sg105
F0.0
sg15
I00
sbsS'nonlin1'
p3903
g0
(g380
g2
Ntp3904
Rp3905
(dp3906
g14
I00
sg32
I01
sg105
F1.0
sg15
I00
sbsS'nonlin3'
p3907
g0
(g380
g2
Ntp3908
Rp3909
(dp3910
g14
I00
sg32
I01
sg105
F0.0
sg15
I00
sbsS'nonlin2'
p3911
g0
(g380
g2
Ntp3912
Rp3913
(dp3914
g14
I00
sg32
I01
sg105
F0.0
sg15
I00
sbsg11
(lp3915
g3903
ag3907
ag3911
aS'pixels'
p3916
ag3899
asg3916
g0
(g566
g2
Ntp3917
Rp3918
(dp3919
g14
I00
sg32
I01
sg105
I36000
sg15
I00
sbsbag0
(g85
g2
Ntp3920
Rp3921
(dp3922
g14
I00
sg32
I01
sg15
I00
sg3899
g0
(g380
g2
Ntp3923
Rp3924
(dp3925
g14
I00
sg32
I01
sg105
F0.0
sg15
I00
sbsg3903
g0
(g380
g2
Ntp3926
Rp3927
(dp3928
g14
I00
sg32
I01
sg105
F1.0
sg15
I00
sbsg3907
g0
(g380
g2
Ntp3929
Rp3930
(dp3931
g14
I00
sg32
I01
sg105
F0.0
sg15
I00
sbsg3911
g0
(g380
g2
Ntp3932
Rp3933
(dp3934
g14
I00
sg32
I01
sg105
F0.0
sg15
I00
sbsg11
(lp3935
g3903
ag3907
ag3911
ag3916
ag3899
asg3916
g0
(g566
g2
Ntp3936
Rp3937
(dp3938
g14
I00
sg32
I01
sg105
I2500
sg15
I00
sbsbag0
(g85
g2
Ntp3939
Rp3940
(dp3941
g14
I00
sg32
I01
sg15
I00
sg3899
g0
(g380
g2
Ntp3942
Rp3943
(dp3944
g14
I00
sg32
I01
sg105
F0.17
sg15
I00
sbsg3903
g0
(g380
g2
Ntp3945
Rp3946
(dp3947
g14
I00
sg32
I01
sg105
F1.00985
sg15
I00
sbsg3907
g0
(g380
g2
Ntp3948
Rp3949
(dp3950
g14
I00
sg32
I01
sg105
F2.86282e-10
sg15
I00
sbsg3911
g0
(g380
g2
Ntp3951
Rp3952
(dp3953
g14
I00
sg32
I01
sg105
F7.84089e-06
sg15
I00
sbsg11
(lp3954
g3903
ag3907
ag3911
ag3916
ag3899
asg3916
g0
(g566
g2
Ntp3955
Rp3956
(dp3957
g14
I00
sg32
I01
sg105
I27370
sg15
I00
sbsbag0
(g85
g2
Ntp3958
Rp3959
(dp3960
g14
I00
sg32
I01
sg15
I00
sg3899
g0
(g380
g2
Ntp3961
Rp3962
(dp3963
g14
I00
sg32
I01
sg105
F0.196
sg15
I00
sbsg3903
g0
(g380
g2
Ntp3964
Rp3965
(dp3966
g14
I00
sg32
I01
sg105
F1.00546
sg15
I00
sbsg3907
g0
(g380
g2
Ntp3967
Rp3968
(dp3969
g14
I00
sg32
I01
sg105
F1.27011e-10
sg15
I00
sbsg3911
g0
(g380
g2
Ntp3970
Rp3971
(dp3972
g14
I00
sg32
I01
sg105
F6.40239e-06
sg15
I00
sbsg11
(lp3973
g3903
ag3907
ag3911
ag3916
ag3899
asg3916
g0
(g566
g2
Ntp3974
Rp3975
(dp3976
g14
I00
sg32
I01
sg105
I38018
sg15
I00
sbsbag0
(g85
g2
Ntp3977
Rp3978
(dp3979
g14
I00
sg32
I01
sg15
I00
sg3899
g0
(g380
g2
Ntp3980
Rp3981
(dp3982
g14
I00
sg32
I01
sg105
F0.17
sg15
I00
sbsg3903
g0
(g380
g2
Ntp3983
Rp3984
(dp3985
g14
I00
sg32
I01
sg105
F1.00985
sg15
I00
sbsg3907
g0
(g380
g2
Ntp3986
Rp3987
(dp3988
g14
I00
sg32
I01
sg105
F2.86282e-10
sg15
I00
sbsg3911
g0
(g380
g2
Ntp3989
Rp3990
(dp3991
g14
I00
sg32
I01
sg105
F7.84089e-06
sg15
I00
sbsg11
(lp3992
g3903
ag3907
ag3911
ag3916
ag3899
asg3916
g0
(g566
g2
Ntp3993
Rp3994
(dp3995
g14
I00
sg32
I01
sg105
I27370
sg15
I00
sbsbag0
(g85
g2
Ntp3996
Rp3997
(dp3998
g14
I00
sg32
I01
sg15
I00
sg3899
g0
(g380
g2
Ntp3999
Rp4000
(dp4001
g14
I00
sg32
I01
sg105
F0.196
sg15
I00
sbsg3903
g0
(g380
g2
Ntp4002
Rp4003
(dp4004
g14
I00
sg32
I01
sg105
F1.00546
sg15
I00
sbsg3907
g0
(g380
g2
Ntp4005
Rp4006
(dp4007
g14
I00
sg32
I01
sg105
F1.27011e-10
sg15
I00
sbsg3911
g0
(g380
g2
Ntp4008
Rp4009
(dp4010
g14
I00
sg32
I01
sg105
F6.40239e-06
sg15
I00
sbsg11
(lp4011
g3903
ag3907
ag3911
ag3916
ag3899
asg3916
g0
(g566
g2
Ntp4012
Rp4013
(dp4014
g14
I00
sg32
I01
sg105
I38018
sg15
I00
sbsbag0
(g85
g2
Ntp4015
Rp4016
(dp4017
g14
I00
sg32
I01
sg15
I00
sg3899
g0
(g380
g2
Ntp4018
Rp4019
(dp4020
g14
I00
sg32
I01
sg105
F0.0
sg15
I00
sbsg3903
g0
(g380
g2
Ntp4021
Rp4022
(dp4023
g14
I00
sg32
I01
sg105
F1.0
sg15
I00
sbsg3907
g0
(g380
g2
Ntp4024
Rp4025
(dp4026
g14
I00
sg32
I01
sg105
F0.0
sg15
I00
sbsg3911
g0
(g380
g2
Ntp4027
Rp4028
(dp4029
g14
I00
sg32
I01
sg105
F0.0
sg15
I00
sbsg11
(lp4030
g3903
ag3907
ag3911
ag3916
ag3899
asg3916
g0
(g566
g2
Ntp4031
Rp4032
(dp4033
g14
I00
sg32
I01
sg105
I0
sg15
I00
sbsbatp4034
Rp4035
(dp4036
g14
I00
sg32
I01
sg15
I00
sg33
I1
sbsg34
g3094
sg3600
g0
(g85
g2
Ntp4037
Rp4038
(dp4039
g14
I00
sg32
I01
sg3496
g0
(g566
g2
Ntp4040
Rp4041
(dp4042
g14
I00
sg32
I01
sg105
I1
sg15
I00
sbsg15
I00
sg3500
g0
(g380
g2
Ntp4043
Rp4044
(dp4045
g14
I00
sg32
I01
sg105
F3.33
sg15
I00
sbsg3504
g0
(g566
g2
Ntp4046
Rp4047
(dp4048
g14
I00
sg32
I01
sg105
I301
sg15
I00
sbsg3508
g0
(g2284
g20
(lp4049
F0.0
atp4050
Rp4051
(dp4052
g14
I00
sg32
I01
sg15
I00
sbsg3513
g0
(g2284
g20
(lp4053
F0.0697
aF-0.7405
aF12.38
aF-671.9
atp4054
Rp4055
(dp4056
g14
I00
sg32
I01
sg15
I00
sbsg3518
g0
(g2284
g20
(lp4057
F0.297
aF0.298
aF0.298
aF0.313
atp4058
Rp4059
(dp4060
g14
I00
sg32
I01
sg15
I00
sbsg3562
g0
(g2284
g20
(lp4061
F0.14
aF0.135
atp4062
Rp4063
(dp4064
g14
I00
sg32
I01
sg15
I00
sbsg3553
g0
(g321
g2
Ntp4065
Rp4066
(dp4067
g14
I00
sg32
I01
sg105
I00
sg15
I00
sbsg11
(lp4068
g3496
ag3500
ag3504
ag3558
ag3513
ag3518
ag3562
ag3553
ag3508
ag3559
ag3560
ag3561
asg3558
g0
(g380
g2
Ntp4069
Rp4070
(dp4071
g14
I00
sg32
I01
sg105
F0.0
sg15
I00
sbsg3559
g0
(g380
g2
Ntp4072
Rp4073
(dp4074
g14
I00
sg32
I01
sg105
F13.33
sg15
I00
sbsg3560
g0
(g566
g2
Ntp4075
Rp4076
(dp4077
g14
I00
sg32
I01
sg105
I301
sg15
I00
sbsg3561
g0
(g2284
g20
(lp4078
F0.0
aF0.0
atp4079
Rp4080
(dp4081
g14
I00
sg32
I01
sg15
I00
sbsbsbsg2821
g2823
sg2347
g2350
ssg2224
g2215
sg2506
g2482
sg3461
g3463
sS'CSCGeometryESModule'
p4082
g0
(g7
g2
Ntp4083
Rp4084
(dp4085
g11
(lp4086
g2246
aS'useDDD'
p4087
aS'debugV'
p4088
aS'useGangedStripsInME1a'
p4089
ag2807
aS'useOnlyWiresInME1a'
p4090
aS'useRealWireGeometry'
p4091
aS'useCentreTIOffsets'
p4092
ag2305
asg14
I00
sg2246
g0
(g101
g2
Ntp4093
Rp4094
(dp4095
g14
I00
sg32
I01
sg105
g77
sg15
I00
sbsg15
I00
sg4088
g0
(g321
g2
Ntp4096
Rp4097
(dp4098
g14
I00
sg32
I00
sg105
I00
sg15
I00
sbsg17
g18
sg4089
g0
(g321
g2
Ntp4099
Rp4100
(dp4101
g14
I00
sg32
I01
sg105
I01
sg15
I00
sbsg2807
g0
(g101
g2
Ntp4102
Rp4103
(dp4104
g14
I00
sg32
I01
sg105
g77
sg15
I00
sbsg4090
g0
(g321
g2
Ntp4105
Rp4106
(dp4107
g14
I00
sg32
I01
sg105
I00
sg15
I00
sbsg4087
g0
(g321
g2
Ntp4108
Rp4109
(dp4110
g14
I00
sg32
I01
sg105
I00
sg15
I00
sbsg16
I52
sg4092
g0
(g321
g2
Ntp4111
Rp4112
(dp4113
g14
I00
sg32
I01
sg105
I00
sg15
I00
sbsg34
g4082
sg4091
g0
(g321
g2
Ntp4114
Rp4115
(dp4116
g14
I00
sg32
I01
sg105
I01
sg15
I00
sbsg2305
g0
(g321
g2
Ntp4117
Rp4118
(dp4119
g14
I00
sg32
I01
sg105
I01
sg15
I00
sbsg35
g4082
sbsS'EcalBarrelGeometryFromDBEP'
p4120
g0
(g7
g2
Ntp4121
Rp4122
(dp4123
g11
(lp4124
g2305
asg14
I00
sg15
I01
sg16
I52
sg17
g18
sg34
g4120
sg2305
g0
(g321
g2
Ntp4125
Rp4126
(dp4127
g14
I00
sg32
I01
sg105
I01
sg15
I01
sbsg35
g4120
sbsS'trackerNumberingGeometryDB'
p4128
g0
(g7
g2
Ntp4129
Rp4130
(dp4131
g11
(lp4132
g2246
ag2806
asg14
I00
sg2246
g0
(g101
g2
Ntp4133
Rp4134
(dp4135
g14
I00
sg32
I01
sg105
g77
sg15
I00
sbsg15
I00
sg16
I52
sg17
g18
sg34
g4128
sg2806
g0
(g321
g2
Ntp4136
Rp4137
(dp4138
g14
I00
sg32
I01
sg105
I00
sg15
I00
sbsg35
S'TrackerGeometricDetESModule'
p4139
sbsg330
g286
sS'_Process__name'
p4140
S'TagAndProbe'
p4141
sg3094
g3473
sg279
g277
sS'siStripGainESProducer'
p4142
g0
(g7
g2
Ntp4143
Rp4144
(dp4145
g11
(lp4146
S'printDebug'
p4147
ag2246
aS'APVGain'
p4148
aS'AutomaticNormalization'
p4149
asg14
I00
sg2246
g0
(g101
g2
Ntp4150
Rp4151
(dp4152
g14
I00
sg32
I01
sg105
g77
sg15
I00
sbsg15
I00
sg4149
g0
(g321
g2
Ntp4153
Rp4154
(dp4155
g14
I00
sg32
I01
sg105
I00
sg15
I00
sbsg16
I52
sg4147
g0
(g321
g2
Ntp4156
Rp4157
(dp4158
g14
I00
sg32
I00
sg105
I00
sg15
I00
sbsg17
g18
sg4148
g0
(g83
g20
(lp4159
g0
(g85
g2
Ntp4160
Rp4161
(dp4162
g14
I00
sg32
I01
sg15
I00
sS'Label'
p4163
g0
(g101
g2
Ntp4164
Rp4165
(dp4166
g14
I00
sg32
I00
sg105
g77
sg15
I00
sbsS'Record'
p4167
g0
(g101
g2
Ntp4168
Rp4169
(dp4170
g14
I00
sg32
I01
sg105
S'SiStripApvGainRcd'
p4171
sg15
I00
sbsS'NormalizationFactor'
p4172
g0
(g380
g2
Ntp4173
Rp4174
(dp4175
g14
I00
sg32
I00
sg105
F1.0
sg15
I00
sbsg11
(lp4176
g4167
ag4172
ag4163
asbag0
(g85
g2
Ntp4177
Rp4178
(dp4179
g14
I00
sg32
I01
sg15
I00
sg4163
g0
(g101
g2
Ntp4180
Rp4181
(dp4182
g14
I00
sg32
I00
sg105
g77
sg15
I00
sbsg4167
g0
(g101
g2
Ntp4183
Rp4184
(dp4185
g14
I00
sg32
I01
sg105
S'SiStripApvGain2Rcd'
p4186
sg15
I00
sbsg4172
g0
(g380
g2
Ntp4187
Rp4188
(dp4189
g14
I00
sg32
I00
sg105
F1.0
sg15
I00
sbsg11
(lp4190
g4167
ag4172
ag4163
asbatp4191
Rp4192
(dp4193
g14
I00
sg32
I01
sg15
I00
sg33
I1
sbsg34
g4142
sg35
S'SiStripGainESProducer'
p4194
sbsS'RPCGeometryESModule'
p4195
g0
(g7
g2
Ntp4196
Rp4197
(dp4198
g11
(lp4199
g4087
aS'compatibiltyWith11'
p4200
asg14
I00
sg15
I00
sg16
I52
sg17
g18
sg4087
g0
(g321
g2
Ntp4201
Rp4202
(dp4203
g14
I00
sg32
I00
sg105
I00
sg15
I00
sbsg4200
g0
(g321
g2
Ntp4204
Rp4205
(dp4206
g14
I00
sg32
I00
sg105
I01
sg15
I00
sbsg34
g4195
sg35
g4195
sbsS'sistripconn'
p4207
g0
(g7
g2
Ntp4208
Rp4209
(dp4210
g11
(lp4211
sg14
I00
sg15
I00
sg16
I52
sg17
g18
sg34
g4207
sg35
S'SiStripConnectivity'
p4212
sbsS'ZdcGeometryFromDBEP'
p4213
g0
(g7
g2
Ntp4214
Rp4215
(dp4216
g11
(lp4217
g2305
asg14
I00
sg15
I00
sg16
I52
sg17
g18
sg34
g4213
sg2305
g0
(g321
g2
Ntp4218
Rp4219
(dp4220
g14
I00
sg32
I01
sg105
I00
sg15
I00
sbsg35
g4213
sbsS'TrackerRecoGeometryESProducer'
p4221
g0
(g7
g2
Ntp4222
Rp4223
(dp4224
g11
(lp4225
sg14
I00
sg15
I00
sg16
I52
sg17
g18
sg34
g4221
sg35
g4221
sbsg3418
g3420
sS'siStripLorentzAngleDepESProducer'
p4226
g0
(g7
g2
Ntp4227
Rp4228
(dp4229
g11
(lp4230
g3047
aS'LorentzAngleDeconvMode'
p4231
aS'LorentzAnglePeakMode'
p4232
asg14
I00
sg15
I00
sg16
I52
sg17
g18
sg3047
g0
(g85
g2
Ntp4233
Rp4234
(dp4235
g14
I00
sg32
I01
sg15
I00
sg2231
g0
(g101
g2
Ntp4236
Rp4237
(dp4238
g14
I00
sg32
I00
sg105
g77
sg15
I00
sbsg2322
g0
(g101
g2
Ntp4239
Rp4240
(dp4241
g14
I00
sg32
I01
sg105
g3059
sg15
I00
sbsg11
(lp4242
g2322
ag2231
asbsg34
g4226
sg4232
g0
(g85
g2
Ntp4243
Rp4244
(dp4245
g14
I00
sg32
I01
sg15
I00
sg2231
g0
(g101
g2
Ntp4246
Rp4247
(dp4248
g14
I00
sg32
I00
sg105
g3067
sg15
I00
sbsg2322
g0
(g101
g2
Ntp4249
Rp4250
(dp4251
g14
I00
sg32
I01
sg105
S'SiStripLorentzAngleRcd'
p4252
sg15
I00
sbsg11
(lp4253
g2322
ag2231
asbsg35
S'SiStripLorentzAngleDepESProducer'
p4254
sg4231
g0
(g85
g2
Ntp4255
Rp4256
(dp4257
g14
I00
sg32
I01
sg15
I00
sg2231
g0
(g101
g2
Ntp4258
Rp4259
(dp4260
g14
I00
sg32
I00
sg105
g3079
sg15
I00
sbsg2322
g0
(g101
g2
Ntp4261
Rp4262
(dp4263
g14
I00
sg32
I01
sg105
g4252
sg15
I00
sbsg11
(lp4264
g2322
ag2231
asbsbsS'CaloTowerTopologyEP'
p4265
g0
(g7
g2
Ntp4266
Rp4267
(dp4268
g11
(lp4269
sg14
I00
sg15
I00
sg16
I52
sg17
g18
sg34
g4265
sg35
g4265
sbsS'ParabolicParametrizedMagneticFieldProducer'
p4270
g0
(g7
g2
Ntp4271
Rp4272
(dp4273
g11
(lp4274
S'version'
p4275
ag3209
ag2231
asg14
I00
sg15
I01
sg16
I52
sg17
g18
sg2231
g0
(g101
g2
Ntp4276
Rp4277
(dp4278
g14
I00
sg32
I00
sg105
S'ParabolicMf'
p4279
sg15
I01
sbsg4275
g0
(g101
g2
Ntp4280
Rp4281
(dp4282
g14
I00
sg32
I01
sg105
S'Parabolic'
p4283
sg15
I00
sbsg3209
g0
(g566
g2
Ntp4284
Rp4285
(dp4286
g14
I00
sg32
I01
sg105
I18268
sg15
I01
sbsg34
g4270
sg35
S'AutoParametrizedMagneticFieldProducer'
p4287
sbsg3024
g2896
sS'stripCPEESProducer'
p4288
g0
(g7
g2
Ntp4289
Rp4290
(dp4291
g11
(lp4292
S'ComponentType'
p4293
ag3318
aS'parameters'
p4294
asg14
I00
sg15
I00
sg4294
g0
(g85
g2
Ntp4295
Rp4296
(dp4297
g14
I00
sg32
I01
sg15
I00
sg11
(lp4298
sbsg16
I52
sg3318
g0
(g101
g2
Ntp4299
Rp4300
(dp4301
g14
I00
sg32
I01
sg105
S'stripCPE'
p4302
sg15
I00
sbsg4293
g0
(g101
g2
Ntp4303
Rp4304
(dp4305
g14
I00
sg32
I01
sg105
S'SimpleStripCPE'
p4306
sg15
I00
sbsg17
g18
sg34
g4288
sg35
S'StripCPEESProducer'
p4307
sbsS'trackerTopology'
p4308
g0
(g7
g2
Ntp4309
Rp4310
(dp4311
g11
(lp4312
g2246
asg14
I00
sg2246
g0
(g101
g2
Ntp4313
Rp4314
(dp4315
g14
I00
sg32
I01
sg105
g77
sg15
I00
sbsg15
I00
sg16
I52
sg17
g18
sg34
g4308
sg35
S'TrackerTopologyEP'
p4316
sbsS'HcalGeometryFromDBEP'
p4317
g0
(g7
g2
Ntp4318
Rp4319
(dp4320
g11
(lp4321
g2305
asg14
I00
sg15
I01
sg16
I52
sg17
g18
sg34
g4317
sg2305
g0
(g321
g2
Ntp4322
Rp4323
(dp4324
g14
I00
sg32
I01
sg105
I01
sg15
I01
sbsg35
g4317
sbsg151
g115
sg3332
g3334
sg3087
g3090
sS'EcalElectronicsMappingBuilder'
p4325
g0
(g7
g2
Ntp4326
Rp4327
(dp4328
g11
(lp4329
sg14
I00
sg15
I00
sg16
I52
sg17
g18
sg34
g4325
sg35
g4325
sbsS'StripCPEfromTrackAngleESProducer'
p4330
g0
(g7
g2
Ntp4331
Rp4332
(dp4333
g11
(lp4334
g4293
ag3318
ag4294
asg14
I00
sg15
I01
sg4294
g0
(g85
g2
Ntp4335
Rp4336
(dp4337
g14
I00
sg32
I01
sS'maxChgOneMIP'
p4338
g0
(g380
g2
Ntp4339
Rp4340
(dp4341
g14
I00
sg32
I01
sg105
F6000.0
sg15
I00
sbsS'mLC_P2'
p4342
g0
(g380
g2
Ntp4343
Rp4344
(dp4345
g14
I00
sg32
I01
sg105
F0.3
sg15
I00
sbsS'mLC_P1'
p4346
g0
(g380
g2
Ntp4347
Rp4348
(dp4349
g14
I00
sg32
I01
sg105
F0.618
sg15
I00
sbsS'mLC_P0'
p4350
g0
(g380
g2
Ntp4351
Rp4352
(dp4353
g14
I00
sg32
I01
sg105
F-0.326
sg15
I00
sbsS'useLegacyError'
p4354
g0
(g321
g2
Ntp4355
Rp4356
(dp4357
g14
I00
sg32
I01
sg105
I00
sg15
I00
sbsS'mTIB_P1'
p4358
g0
(g380
g2
Ntp4359
Rp4360
(dp4361
g14
I00
sg32
I01
sg105
F0.202
sg15
I00
sbsS'mTEC_P1'
p4362
g0
(g380
g2
Ntp4363
Rp4364
(dp4365
g14
I00
sg32
I01
sg105
F0.471
sg15
I00
sbsS'mTEC_P0'
p4366
g0
(g380
g2
Ntp4367
Rp4368
(dp4369
g14
I00
sg32
I01
sg105
F-1.885
sg15
I00
sbsS'mTOB_P0'
p4370
g0
(g380
g2
Ntp4371
Rp4372
(dp4373
g14
I00
sg32
I01
sg105
F-1.026
sg15
I00
sbsS'mTOB_P1'
p4374
g0
(g380
g2
Ntp4375
Rp4376
(dp4377
g14
I00
sg32
I01
sg105
F0.253
sg15
I00
sbsS'mTIB_P0'
p4378
g0
(g380
g2
Ntp4379
Rp4380
(dp4381
g14
I00
sg32
I01
sg105
F-0.742
sg15
I00
sbsg11
(lp4382
g4338
ag4342
ag4346
ag4350
ag4354
ag4362
ag4366
ag4370
ag4374
ag4378
ag4358
aS'mTID_P0'
p4383
aS'mTID_P1'
p4384
asg4383
g0
(g380
g2
Ntp4385
Rp4386
(dp4387
g14
I00
sg32
I01
sg105
F-1.427
sg15
I00
sbsg4384
g0
(g380
g2
Ntp4388
Rp4389
(dp4390
g14
I00
sg32
I01
sg105
F0.433
sg15
I00
sbsg15
I00
sbsg16
I4
sg3318
g0
(g101
g2
Ntp4391
Rp4392
(dp4393
g14
I00
sg32
I01
sg105
S'StripCPEfromTrackAngle'
p4394
sg15
I00
sbsg4293
g0
(g101
g2
Ntp4395
Rp4396
(dp4397
g14
I00
sg32
I01
sg105
g4394
sg15
I00
sbsg17
S'/cvmfs/cms.cern.ch/slc6_amd64_gcc530/cms/cmssw/CMSSW_9_2_8/python/RecoLocalTracker/SiStripRecHitConverter/StripCPEfromTrackAngle_cfi.py'
p4398
sg34
g4330
sg35
g4307
sbsS'_Process__aliases'
p4399
(dp4400
sS'GlobalTrackingGeometryESProducer'
p4401
g0
(g7
g2
Ntp4402
Rp4403
(dp4404
g11
(lp4405
sg14
I00
sg15
I00
sg16
I52
sg17
g18
sg34
g4401
sg35
g4401
sbsS'EcalLaserCorrectionService'
p4406
g0
(g7
g2
Ntp4407
Rp4408
(dp4409
g11
(lp4410
sg14
I00
sg15
I00
sg16
I52
sg17
g18
sg34
g4406
sg35
g4406
sbsg275
g247
sS'_cloneToObjectDict'
p4411
(dp4412
I47113443312656
g2803
sI47113443353488
g4215
sI47113444131792
g2896
sI47113443302928
g4197
sI47113443656272
g3180
sI47113443636368
g2314
sI47113443353808
g2770
sI47113444134864
g2482
sI47113443312912
g4223
sI47113443657936
g338
sI47113443314064
g9
sI47113443313040
g4310
sI47113443600976
g3044
sI47113443354128
g3034
sI47113443313232
g2524
sI47113443739280
g3334
sI47113443472400
g2350
sI47113443767120
g2845
sI47113443312848
g4403
sI47113443407696
g2227
sI47113443600272
g4228
sI47113443313616
g3266
sI47113443352784
g0
(g7
g2
Ntp4413
Rp4414
(dp4415
g11
(lp4416
S'MergePosition'
p4417
aS'Exclude'
p4418
ag2246
asg14
I00
sg2246
g0
(g101
g2
Ntp4419
Rp4420
(dp4421
g14
I00
sg32
I01
sg105
g77
sg15
I00
sbsg15
I00
sg16
I52
sg4417
g0
(g321
g2
Ntp4422
Rp4423
(dp4424
g14
I00
sg32
I00
sg105
I01
sg15
I00
sbsg17
g18
sg34
S'hcalTopologyIdeal'
p4425
sg4418
g0
(g101
g2
Ntp4426
Rp4427
(dp4428
g14
I00
sg32
I00
sg105
g77
sg15
I00
sbsg35
S'HcalTopologyIdealEP'
p4429
sbsI47113443797328
g53
sI47113443408080
g3175
sI47113443637520
g0
(g7
g2
Ntp4430
Rp4431
(dp4432
g11
(lp4433
g2246
aS'PrintDebugOutput'
p4434
aS'ThresholdForReducedGranularity'
p4435
aS'UseEmptyRunInfo'
p4436
aS'ReduceGranularity'
p4437
ag2317
asg14
I00
sg2246
g0
(g101
g2
Ntp4438
Rp4439
(dp4440
g14
I00
sg32
I01
sg105
g77
sg15
I00
sbsg15
I01
sg16
I52
sg17
g18
sg4435
g0
(g380
g2
Ntp4441
Rp4442
(dp4443
g14
I00
sg32
I01
sg105
F0.3
sg15
I00
sbsg34
S'siStripQualityESProducer'
p4444
sg4436
g0
(g321
g2
Ntp4445
Rp4446
(dp4447
g14
I00
sg32
I01
sg105
I00
sg15
I00
sbsg4437
g0
(g321
g2
Ntp4448
Rp4449
(dp4450
g14
I00
sg32
I01
sg105
I00
sg15
I00
sbsg2317
g0
(g83
g20
(lp4451
g0
(g85
g2
Ntp4452
Rp4453
(dp4454
g14
I00
sg32
I01
sg15
I00
sg2322
g0
(g101
g2
Ntp4455
Rp4456
(dp4457
g14
I00
sg32
I01
sg105
S'SiStripDetVOffRcd'
p4458
sg15
I00
sbsg2327
g0
(g101
g2
Ntp4459
Rp4460
(dp4461
g14
I00
sg32
I01
sg105
g77
sg15
I00
sbsg11
(lp4462
g2322
ag2327
asbag0
(g85
g2
Ntp4463
Rp4464
(dp4465
g14
I00
sg32
I01
sg15
I00
sg2322
g0
(g101
g2
Ntp4466
Rp4467
(dp4468
g14
I00
sg32
I01
sg105
S'SiStripDetCablingRcd'
p4469
sg15
I00
sbsg2327
g0
(g101
g2
Ntp4470
Rp4471
(dp4472
g14
I00
sg32
I01
sg105
g77
sg15
I00
sbsg11
(lp4473
g2322
ag2327
asbag0
(g85
g2
Ntp4474
Rp4475
(dp4476
g14
I00
sg32
I01
sg15
I00
sg2322
g0
(g101
g2
Ntp4477
Rp4478
(dp4479
g14
I00
sg32
I01
sg105
S'RunInfoRcd'
p4480
sg15
I00
sbsg2327
g0
(g101
g2
Ntp4481
Rp4482
(dp4483
g14
I00
sg32
I01
sg105
g77
sg15
I00
sbsg11
(lp4484
g2322
ag2327
asbag0
(g85
g2
Ntp4485
Rp4486
(dp4487
g14
I00
sg32
I01
sg15
I00
sg2322
g0
(g101
g2
Ntp4488
Rp4489
(dp4490
g14
I00
sg32
I01
sg105
S'SiStripBadChannelRcd'
p4491
sg15
I00
sbsg2327
g0
(g101
g2
Ntp4492
Rp4493
(dp4494
g14
I00
sg32
I01
sg105
g77
sg15
I00
sbsg11
(lp4495
g2322
ag2327
asbag0
(g85
g2
Ntp4496
Rp4497
(dp4498
g14
I00
sg32
I01
sg15
I00
sg2322
g0
(g101
g2
Ntp4499
Rp4500
(dp4501
g14
I00
sg32
I01
sg105
S'SiStripBadFiberRcd'
p4502
sg15
I00
sbsg2327
g0
(g101
g2
Ntp4503
Rp4504
(dp4505
g14
I00
sg32
I01
sg105
g77
sg15
I00
sbsg11
(lp4506
g2322
ag2327
asbag0
(g85
g2
Ntp4507
Rp4508
(dp4509
g14
I00
sg32
I01
sg15
I00
sg2322
g0
(g101
g2
Ntp4510
Rp4511
(dp4512
g14
I00
sg32
I01
sg105
S'SiStripBadModuleRcd'
p4513
sg15
I00
sbsg2327
g0
(g101
g2
Ntp4514
Rp4515
(dp4516
g14
I00
sg32
I01
sg105
g77
sg15
I00
sbsg11
(lp4517
g2322
ag2327
asbag0
(g85
g2
Ntp4518
Rp4519
(dp4520
g14
I00
sg32
I01
sg15
I00
sg2322
g0
(g101
g2
Ntp4521
Rp4522
(dp4523
g14
I00
sg32
I01
sg105
S'SiStripBadStripRcd'
p4524
sg15
I00
sbsg2327
g0
(g101
g2
Ntp4525
Rp4526
(dp4527
g14
I00
sg32
I01
sg105
g77
sg15
I00
sbsg11
(lp4528
g2322
ag2327
asbatp4529
Rp4530
(dp4531
g14
I00
sg32
I01
sg15
I00
sg33
I1
sbsg35
S'SiStripQualityESProducer'
p4532
sg4434
g0
(g321
g2
Ntp4533
Rp4534
(dp4535
g14
I00
sg32
I01
sg105
I00
sg15
I00
sbsbsI47113443589296
g277
sI47113444151504
g2473
sI47113443741200
g153
sI47113443798096
g41
sI47113443769552
g213
sI47113443768912
g3420
sI47113443474000
g2778
sI47113443766480
g2425
sI47113443474064
g0
(g7
g2
Ntp4536
Rp4537
(dp4538
g11
(lp4539
S'file'
p4540
aS'dump'
p4541
asg14
I00
sg15
I00
sg4541
g0
(g19
g20
(lp4542
g77
atp4543
Rp4544
(dp4545
g14
I00
sg32
I00
sg15
I00
sg33
I1
sbsg16
I52
sg17
g18
sg4540
g0
(g101
g2
Ntp4546
Rp4547
(dp4548
g14
I00
sg32
I00
sg105
g77
sg15
I00
sbsg34
S'hcal_db_producer'
p4549
sg35
S'HcalDbProducer'
p4550
sbsI47113443355344
g2243
sI47113443314448
g2529
sI47113443560272
g3473
sI47113443599376
g4144
sI47113443601296
g4290
sI47113443768272
g3223
sI47113443797968
g286
sI47113443314704
g4122
sI47113443302480
g4084
sI47113443738640
g115
sI47113443658896
g87
sI47113443355856
g3146
sI47113443740560
g3377
sI47113443409168
g4272
sI47113443560528
g3090
sI47113443315536
g2302
sI47113443560848
g0
(g7
g2
Ntp4551
Rp4552
(dp4553
g11
(lp4554
g2246
asg14
I00
sg2246
g0
(g101
g2
Ntp4555
Rp4556
(dp4557
g14
I00
sg32
I01
sg105
g77
sg15
I00
sbsg15
I00
sg16
I52
sg17
g18
sg34
S'CastorDbProducer'
p4558
sg35
g4558
sbsI47113443354576
g4327
sI47113443315152
g4319
sI47113443315216
g0
(g7
g2
Ntp4559
Rp4560
(dp4561
g11
(lp4562
sg14
I00
sg15
I00
sg16
I52
sg17
g18
sg34
S'HcalAlignmentEP'
p4563
sg35
g4563
sbsI47113443635600
g3314
sI47113443406032
g0
(g7
g2
Ntp4564
Rp4565
(dp4566
g11
(lp4567
g2246
ag4087
ag4088
ag4089
ag2807
ag4090
ag4091
ag4092
ag2305
asg14
I00
sg2246
g0
(g101
g2
Ntp4568
Rp4569
(dp4570
g14
I00
sg32
I01
sg105
g3152
sg15
I01
sbsg15
I01
sg4088
g0
(g321
g2
Ntp4571
Rp4572
(dp4573
g14
I00
sg32
I00
sg105
I00
sg15
I00
sbsg17
S'/cvmfs/cms.cern.ch/slc6_amd64_gcc530/cms/cmssw/CMSSW_9_2_8/python/Geometry/CSCGeometryBuilder/idealForDigiCscGeometryDB_cff.py'
p4574
sg4089
g0
(g321
g2
Ntp4575
Rp4576
(dp4577
g14
I00
sg32
I01
sg105
I01
sg15
I00
sbsg2807
g0
(g101
g2
Ntp4578
Rp4579
(dp4580
g14
I00
sg32
I01
sg105
g3156
sg15
I01
sbsg4090
g0
(g321
g2
Ntp4581
Rp4582
(dp4583
g14
I00
sg32
I01
sg105
I00
sg15
I00
sbsg4087
g0
(g321
g2
Ntp4584
Rp4585
(dp4586
g14
I00
sg32
I01
sg105
I00
sg15
I00
sbsg16
I8
sg4092
g0
(g321
g2
Ntp4587
Rp4588
(dp4589
g14
I00
sg32
I01
sg105
I00
sg15
I00
sbsg34
S'idealForDigiCSCGeometry'
p4590
sg4091
g0
(g321
g2
Ntp4591
Rp4592
(dp4593
g14
I00
sg32
I01
sg105
I01
sg15
I00
sbsg2305
g0
(g321
g2
Ntp4594
Rp4595
(dp4596
g14
I00
sg32
I01
sg105
I00
sg15
I01
sbsg35
g4082
sbsI47113443601424
g4332
sI47113443406864
g0
(g7
g2
Ntp4597
Rp4598
(dp4599
g11
(lp4600
g2246
ag2806
ag2305
ag2807
asg14
I00
sg2246
g0
(g101
g2
Ntp4601
Rp4602
(dp4603
g14
I00
sg32
I01
sg105
g3152
sg15
I01
sbsg15
I01
sg2807
g0
(g101
g2
Ntp4604
Rp4605
(dp4606
g14
I00
sg32
I01
sg105
g3156
sg15
I01
sbsg17
S'/cvmfs/cms.cern.ch/slc6_amd64_gcc530/cms/cmssw/CMSSW_9_2_8/python/Geometry/DTGeometryBuilder/idealForDigiDtGeometryDB_cff.py'
p4607
sg16
I8
sg34
S'idealForDigiDTGeometry'
p4608
sg2806
g0
(g321
g2
Ntp4609
Rp4610
(dp4611
g14
I00
sg32
I01
sg105
I00
sg15
I00
sbsg2305
g0
(g321
g2
Ntp4612
Rp4613
(dp4614
g14
I00
sg32
I01
sg105
I00
sg15
I01
sbsg35
g3187
sbsI47113443659536
g3103
sI47113443314576
g0
(g7
g2
Ntp4615
Rp4616
(dp4617
g11
(lp4618
g2305
asg14
I00
sg15
I01
sg16
I52
sg17
g18
sg34
S'EcalPreshowerGeometryFromDBEP'
p4619
sg2305
g0
(g321
g2
Ntp4620
Rp4621
(dp4622
g14
I00
sg32
I01
sg105
I01
sg15
I01
sbsg35
g4619
sbsI47113443356560
g0
(g7
g2
Ntp4623
Rp4624
(dp4625
g11
(lp4626
g2246
asg14
I00
sg2246
g0
(g101
g2
Ntp4627
Rp4628
(dp4629
g14
I00
sg32
I01
sg105
g3156
sg15
I01
sbsg15
I01
sg16
I5
sg17
S'/cvmfs/cms.cern.ch/slc6_amd64_gcc530/cms/cmssw/CMSSW_9_2_8/python/Alignment/CommonAlignmentProducer/fakeForIdealAlignmentProducer_cfi.py'
p4630
sg34
S'fakeForIdealAlignment'
p4631
sg35
S'FakeAlignmentProducer'
p4632
sbsI47113443796880
g62
sI47113443354832
g2823
sI47113443739920
g2254
sI47113443355664
g0
(g7
g2
Ntp4633
Rp4634
(dp4635
g11
(lp4636
g2246
asg14
I00
sg2246
g0
(g101
g2
Ntp4637
Rp4638
(dp4639
g14
I00
sg32
I01
sg105
g77
sg15
I00
sbsg15
I00
sg16
I52
sg17
g18
sg34
S'hcalDDDRecConstants'
p4640
sg35
S'HcalDDDRecConstantsESModule'
p4641
sbsI47113443311824
g3189
sI47113443472912
g4408
sI47113443767632
g184
sI47113443795280
g247
sI47113443352976
g4267
sI47113443738064
g3271
sI47113443408656
g3206
sI47113443635728
g4209
sI47113444134672
g2888
sI47113443312208
g4130
sI47113443656400
g3463
ssg182
g153
sg4563
g4560
sg4619
g4616
sg4640
g4634
sg4558
g4552
sg113
g87
sg2470
g2473
sg4590
g4565
sS'_Process__subProcesses'
p4642
(lp4643
sg4549
g4537
sg3375
g3377
sg4425
g4414
sS'_Process__schedule'
p4644
Nsg4444
g4431
sg4608
g4598
sS'_Process__modifiers'
p4645
(tsS'_Process__filters'
p4646
(dp4647
g3024
g2896
ssS'_Process__esproducers'
p4648
(dp4649
g6
g9
sg4444
g4431
sg4406
g4408
sg4221
g4223
sg3204
g3206
sg4330
g4332
sg2768
g2770
sg3264
g3266
sg4401
g4403
sg2225
g2227
sg2801
g2803
sg4226
g4228
sg4425
g4414
sg4563
g4560
sg4619
g4616
sg4558
g4552
sg4640
g4634
sg4082
g4084
sg4120
g4122
sg4128
g4130
sg4325
g4327
sg3032
g3034
sg4590
g4565
sg2300
g2302
sg3042
g3044
sg4549
g4537
sg4142
g4144
sg3312
g3314
sg4195
g4197
sg4608
g4598
sg4213
g4215
sg3187
g3189
sg2527
g2529
sg4207
g4209
sg2312
g2314
sg3144
g3146
sg4265
g4267
sg4270
g4272
sg4288
g4290
sg2241
g2243
sg2522
g2524
sg4308
g4310
sg3173
g3175
sg4631
g4624
sg4317
g4319
ssS'_Process__partialschedules'
p4650
(dp4651
sg4631
g4624
sb.