(dp1
S'OriginalConfig'
p2
ccopy_reg
_reconstructor
p3
(cWMCore.Configuration
Configuration
p4
c__builtin__
object
p5
NtRp6
(dp7
S'Site'
p8
g3
(cWMCore.Configuration
ConfigSection
p9
g5
NtRp10
(dp11
S'_internal_skipChecks'
p12
I00
sS'_internal_documentation'
p13
S''
sS'_internal_settings'
p14
c__builtin__
set
p15
((lp16
S'storageSite'
p17
atRp18
sS'_internal_name'
p19
g8
sS'_internal_docstrings'
p20
(dp21
sS'_internal_children'
p22
g15
((ltRp23
sg17
S'T2_TW_NCHC'
p24
sS'_internal_parent_ref'
p25
NsbsS'_internal_sections'
p26
(lp27
S'General'
p28
aS'JobType'
p29
aS'Data'
p30
ag8
aS'User'
p31
aS'Debug'
p32
asg28
g3
(g9
g5
NtRp33
(dp34
S'transferLogs'
p35
I01
sg12
I00
sg13
S''
sg14
g15
((lp36
g35
aS'transferOutputs'
p37
aS'workArea'
p38
aS'requestName'
p39
atRp40
sg19
g28
sg20
(dp41
sg37
I01
sg22
g15
((ltRp42
sg39
S'TnP_SingleElectron_Run2017F_31Mar2018_v1_MINIAOD'
p43
sg25
Nsg38
S'Tnp_2017_data_crab'
p44
sbsS'_internal_webapps'
p45
(lp46
sg31
g3
(g9
g5
NtRp47
(dp48
g12
I00
sg13
S''
sg14
g15
((ltRp49
sg19
g31
sg20
(dp50
sg22
g15
((ltRp51
sg25
NsbsS'_internal_components'
p52
(lp53
sg32
g3
(g9
g5
NtRp54
(dp55
g12
I00
sg13
S''
sg14
g15
((ltRp56
sg19
g32
sg20
(dp57
sg22
g15
((ltRp58
sg25
Nsbsg30
g3
(g9
g5
NtRp59
(dp60
S'inputDataset'
p61
S'/SingleElectron/Run2017F-31Mar2018-v1/MINIAOD'
p62
sS'outputDatasetTag'
p63
S'electron_Run2017F_31Mar2018_v1'
p64
sg12
I00
sS'splitting'
p65
S'LumiBased'
p66
sS'unitsPerJob'
p67
I70
sg13
S''
sg14
g15
((lp68
g61
ag63
ag67
aS'inputDBS'
p69
ag65
aS'outLFNDirBase'
p70
atRp71
sg19
g30
sg69
S'global'
p72
sg20
(dp73
sg22
g15
((ltRp74
sg70
S'/store/user/pusheng/20170827B2GTriggerEfficiency'
p75
sg25
Nsbsg29
g3
(g9
g5
NtRp76
(dp77
g12
I00
sS'pyCfgParams'
p78
(lp79
S'useMC=False'
p80
aS'lepton=electron'
p81
aS'Debug=1'
p82
asg13
S''
sg14
g15
((lp83
S'psetName'
p84
aS'pluginName'
p85
aS'maxJobRuntimeMin'
p86
ag78
aS'maxMemoryMB'
p87
atRp88
sg19
g29
sg20
(dp89
sg85
S'Analysis'
p90
sg22
g15
((ltRp91
sg84
S'DataFltr_cfg.py'
p92
sg25
Nsg86
I2000
sg87
I2000
sbsbsS'voGroup'
p93
S''
sS'Server'
p94
S'cmsweb.cern.ch'
p95
sS'instance'
p96
S'prod'
p97
sS'RequestName'
p98
V180509_171713:pusheng_crab_TnP_SingleElectron_Run2017F_31Mar2018_v1_MINIAOD
p99
sS'voRole'
p100
S'NULL'
p101
sS'Port'
p102
S''
s.