ccopy_reg
_reconstructor
p0
(cFWCore.ParameterSet.Config
Process
p1
c__builtin__
object
p2
Ntp3
Rp4
(dp5
S'CaloGeometryBuilder'
p6
g0
(cFWCore.ParameterSet.Modules
ESProducer
p7
g2
Ntp8
Rp9
(dp10
S'_Parameterizable__parameterNames'
p11
(lp12
S'SelectedCalos'
p13
asS'_isFrozen'
p14
I00
sS'_isModified'
p15
I00
sS'_lineNumber'
p16
I52
sS'_filename'
p17
S'/cvmfs/cms.cern.ch/slc6_amd64_gcc630/cms/cmssw-patch/CMSSW_9_4_6_patch1/python/FWCore/ParameterSet/Modules.py'
p18
sg13
g0
(cFWCore.ParameterSet.Types
vstring
p19
c__builtin__
list
p20
(lp21
S'HCAL'
p22
aS'ZDC'
p23
aS'CASTOR'
p24
aS'EcalBarrel'
p25
aS'EcalEndcap'
p26
aS'EcalPreshower'
p27
aS'TOWER'
p28
atp29
Rp30
(dp31
g14
I00
sS'_ParameterTypeBase__isTracked'
p32
I01
sg15
I00
sS'_nPerLine'
p33
I1
sbsS'_Labelable__label'
p34
g6
sS'_TypedParameterizable__type'
p35
g6
sbsS'_Process__sequences'
p36
(dp37
S'egmGsfElectronIDSequence'
p38
g0
(cFWCore.ParameterSet.SequenceTypes
Sequence
p39
g2
Ntp40
Rp41
(dp42
g14
I00
sS'_seq'
p43
Nsg34
g38
sg15
I00
sS'_tasks'
p44
g0
(cFWCore.ParameterSet.OrderedSet
OrderedSet
p45
g2
Ntp46
Rp47
(dp48
S'map'
p49
(dp50
g0
(cFWCore.ParameterSet.SequenceTypes
Task
p51
g2
Ntp52
Rp53
(dp54
S'_collection'
p55
g0
(g45
g2
Ntp56
Rp57
(dp58
g49
(dp59
g0
(cFWCore.ParameterSet.Modules
EDProducer
p60
g2
Ntp61
Rp62
(dp63
g11
(lp64
S'src'
p65
aS'srcMiniAOD'
p66
aS'mvaConfigurations'
p67
asg14
I00
sg66
g0
(cFWCore.ParameterSet.Types
InputTag
p68
g2
Ntp69
Rp70
(dp71
g14
I00
sg32
I01
sg15
I00
sS'_InputTag__moduleLabel'
p72
S'slimmedElectrons'
p73
sS'_InputTag__processName'
p74
S'@skipCurrentProcess'
p75
sS'_InputTag__productInstance'
p76
S''
p77
sbsg15
I00
sg65
g0
(g68
g2
Ntp78
Rp79
(dp80
g14
I00
sg32
I01
sg15
I00
sg72
S'gedGsfElectrons'
p81
sg74
g77
sg76
g77
sbsg17
S'/cvmfs/cms.cern.ch/slc6_amd64_gcc630/cms/cmssw-patch/CMSSW_9_4_6_patch1/python/RecoEgamma/ElectronIdentification/ElectronMVAValueMapProducer_cfi.py'
p82
sg67
g0
(cFWCore.ParameterSet.Types
VPSet
p83
g20
(lp84
g0
(cFWCore.ParameterSet.Types
PSet
p85
g2
Ntp86
Rp87
(dp88
g14
I00
sg32
I01
sg15
I00
sS'weightFileNames'
p89
g0
(g19
g20
(lp90
S'RecoEgamma/ElectronIdentification/data/PHYS14/EIDmva_EB1_5_oldscenario2phys14_BDT.weights.xml'
p91
aS'RecoEgamma/ElectronIdentification/data/PHYS14/EIDmva_EB2_5_oldscenario2phys14_BDT.weights.xml'
p92
aS'RecoEgamma/ElectronIdentification/data/PHYS14/EIDmva_EE_5_oldscenario2phys14_BDT.weights.xml'
p93
aS'RecoEgamma/ElectronIdentification/data/PHYS14/EIDmva_EB1_10_oldscenario2phys14_BDT.weights.xml'
p94
aS'RecoEgamma/ElectronIdentification/data/PHYS14/EIDmva_EB2_10_oldscenario2phys14_BDT.weights.xml'
p95
aS'RecoEgamma/ElectronIdentification/data/PHYS14/EIDmva_EE_10_oldscenario2phys14_BDT.weights.xml'
p96
atp97
Rp98
(dp99
g14
I00
sg32
I01
sg15
I00
sg33
I1
sbsS'mvaName'
p100
g0
(cFWCore.ParameterSet.Types
string
p101
g2
Ntp102
Rp103
(dp104
g14
I00
sg32
I01
sS'_value'
p105
S'ElectronMVAEstimatorRun2Phys14NonTrig'
p106
sg15
I00
sbsS'mvaTag'
p107
g0
(g101
g2
Ntp108
Rp109
(dp110
g14
I00
sg32
I01
sg105
S'25nsV1'
p111
sg15
I00
sbsg11
(lp112
g100
ag89
ag107
asg34
S'mvaEleID_PHYS14_PU20bx25_nonTrig_V1_producer_config'
p113
sbag0
(g85
g2
Ntp114
Rp115
(dp116
g14
I00
sg32
I01
sS'beamSpot'
p117
g0
(g68
g2
Ntp118
Rp119
(dp120
g14
I00
sg32
I01
sg15
I00
sg72
S'offlineBeamSpot'
p121
sg74
g77
sg76
g77
sbsS'conversionsAOD'
p122
g0
(g68
g2
Ntp123
Rp124
(dp125
g14
I00
sg32
I01
sg15
I00
sg72
S'allConversions'
p126
sg74
g77
sg76
g77
sbsS'conversionsMiniAOD'
p127
g0
(g68
g2
Ntp128
Rp129
(dp130
g14
I00
sg32
I01
sg15
I00
sg72
S'reducedEgamma'
p131
sg74
g77
sg76
S'reducedConversions'
p132
sbsg89
g0
(g19
g20
(lp133
S'RecoEgamma/ElectronIdentification/data/Spring15/EIDmva_EB1_5_oldNonTrigSpring15_ConvVarCwoBoolean_TMVA412_FullStatLowPt_PairNegWeightsGlobal_BDT.weights.xml'
p134
aS'RecoEgamma/ElectronIdentification/data/Spring15/EIDmva_EB2_5_oldNonTrigSpring15_ConvVarCwoBoolean_TMVA412_FullStatLowPt_PairNegWeightsGlobal_BDT.weights.xml'
p135
aS'RecoEgamma/ElectronIdentification/data/Spring15/EIDmva_EE_5_oldNonTrigSpring15_ConvVarCwoBoolean_TMVA412_FullStatLowPt_PairNegWeightsGlobal_BDT.weights.xml'
p136
aS'RecoEgamma/ElectronIdentification/data/Spring15/EIDmva_EB1_10_oldNonTrigSpring15_ConvVarCwoBoolean_TMVA412_FullStatLowPt_PairNegWeightsGlobal_BDT.weights.xml'
p137
aS'RecoEgamma/ElectronIdentification/data/Spring15/EIDmva_EB2_10_oldNonTrigSpring15_ConvVarCwoBoolean_TMVA412_FullStatLowPt_PairNegWeightsGlobal_BDT.weights.xml'
p138
aS'RecoEgamma/ElectronIdentification/data/Spring15/EIDmva_EE_10_oldNonTrigSpring15_ConvVarCwoBoolean_TMVA412_FullStatLowPt_PairNegWeightsGlobal_BDT.weights.xml'
p139
atp140
Rp141
(dp142
g14
I00
sg32
I01
sg15
I00
sg33
I1
sbsg100
g0
(g101
g2
Ntp143
Rp144
(dp145
g14
I00
sg32
I01
sg105
S'ElectronMVAEstimatorRun2Spring15NonTrig'
p146
sg15
I00
sbsg107
g0
(g101
g2
Ntp147
Rp148
(dp149
g14
I00
sg32
I01
sg105
g111
sg15
I00
sbsg11
(lp150
g100
ag117
ag122
ag127
ag89
ag107
asg34
S'mvaEleID_Spring15_25ns_nonTrig_V1_producer_config'
p151
sg15
I00
sbag0
(g85
g2
Ntp152
Rp153
(dp154
g14
I00
sg32
I01
sg117
g0
(g68
g2
Ntp155
Rp156
(dp157
g14
I00
sg32
I01
sg15
I00
sg72
g121
sg74
g77
sg76
g77
sbsg122
g0
(g68
g2
Ntp158
Rp159
(dp160
g14
I00
sg32
I01
sg15
I00
sg72
g126
sg74
g77
sg76
g77
sbsg127
g0
(g68
g2
Ntp161
Rp162
(dp163
g14
I00
sg32
I01
sg15
I00
sg72
S'reducedEgamma'
p164
sg74
g77
sg76
S'reducedConversions'
p165
sbsg89
g0
(g19
g20
(lp166
S'RecoEgamma/ElectronIdentification/data/Spring15/EIDmva_EB1_10_oldTrigSpring15_50ns_data_1_VarD_TMVA412_Sig6BkgAll_MG_noSpec_BDT.weights.xml'
p167
aS'RecoEgamma/ElectronIdentification/data/Spring15/EIDmva_EB2_10_oldTrigSpring15_50ns_data_1_VarD_TMVA412_Sig6BkgAll_MG_noSpec_BDT.weights.xml'
p168
aS'RecoEgamma/ElectronIdentification/data/Spring15/EIDmva_EE_10_oldTrigSpring15_50ns_data_1_VarD_TMVA412_Sig6BkgAll_MG_noSpec_BDT.weights.xml'
p169
atp170
Rp171
(dp172
g14
I00
sg32
I01
sg15
I00
sg33
I1
sbsg100
g0
(g101
g2
Ntp173
Rp174
(dp175
g14
I00
sg32
I01
sg105
S'ElectronMVAEstimatorRun2Spring15Trig'
p176
sg15
I00
sbsg107
g0
(g101
g2
Ntp177
Rp178
(dp179
g14
I00
sg32
I01
sg105
S'50nsV1'
p180
sg15
I00
sbsg11
(lp181
g100
ag117
ag122
ag127
ag89
ag107
asg34
S'mvaEleID_Spring15_50ns_Trig_V1_producer_config'
p182
sg15
I00
sbag0
(g85
g2
Ntp183
Rp184
(dp185
g14
I00
sg32
I01
sg117
g0
(g68
g2
Ntp186
Rp187
(dp188
g14
I00
sg32
I01
sg15
I00
sg72
g121
sg74
g77
sg76
g77
sbsg122
g0
(g68
g2
Ntp189
Rp190
(dp191
g14
I00
sg32
I01
sg15
I00
sg72
g126
sg74
g77
sg76
g77
sbsg127
g0
(g68
g2
Ntp192
Rp193
(dp194
g14
I00
sg32
I01
sg15
I00
sg72
S'reducedEgamma'
p195
sg74
g77
sg76
S'reducedConversions'
p196
sbsg89
g0
(g19
g20
(lp197
S'RecoEgamma/ElectronIdentification/data/Spring15/EIDmva_EB1_10_oldTrigSpring15_25ns_data_1_VarD_TMVA412_Sig6BkgAll_MG_noSpec_BDT.weights.xml'
p198
aS'RecoEgamma/ElectronIdentification/data/Spring15/EIDmva_EB2_10_oldTrigSpring15_25ns_data_1_VarD_TMVA412_Sig6BkgAll_MG_noSpec_BDT.weights.xml'
p199
aS'RecoEgamma/ElectronIdentification/data/Spring15/EIDmva_EE_10_oldTrigSpring15_25ns_data_1_VarD_TMVA412_Sig6BkgAll_MG_noSpec_BDT.weights.xml'
p200
atp201
Rp202
(dp203
g14
I00
sg32
I01
sg15
I00
sg33
I1
sbsg100
g0
(g101
g2
Ntp204
Rp205
(dp206
g14
I00
sg32
I01
sg105
g176
sg15
I00
sbsg107
g0
(g101
g2
Ntp207
Rp208
(dp209
g14
I00
sg32
I01
sg105
g111
sg15
I00
sbsg11
(lp210
g100
ag117
ag122
ag127
ag89
ag107
asg34
S'mvaEleID_Spring15_25ns_Trig_V1_producer_config'
p211
sg15
I00
sbag0
(g85
g2
Ntp212
Rp213
(dp214
g14
I00
sg32
I01
sg117
g0
(g68
g2
Ntp215
Rp216
(dp217
g14
I00
sg32
I01
sg15
I00
sg72
g121
sg74
g77
sg76
g77
sbsg122
g0
(g68
g2
Ntp218
Rp219
(dp220
g14
I00
sg32
I01
sg15
I00
sg72
g126
sg74
g77
sg76
g77
sbsg127
g0
(g68
g2
Ntp221
Rp222
(dp223
g14
I00
sg32
I01
sg15
I00
sg72
S'reducedEgamma'
p224
sg74
g77
sg76
S'reducedConversions'
p225
sbsg89
g0
(g19
g20
(lp226
S'RecoEgamma/ElectronIdentification/data/Spring16_HZZ_V1/electronID_mva_Spring16_HZZ_V1_EB1_5.weights.xml'
p227
aS'RecoEgamma/ElectronIdentification/data/Spring16_HZZ_V1/electronID_mva_Spring16_HZZ_V1_EB2_5.weights.xml'
p228
aS'RecoEgamma/ElectronIdentification/data/Spring16_HZZ_V1/electronID_mva_Spring16_HZZ_V1_EE_5.weights.xml'
p229
aS'RecoEgamma/ElectronIdentification/data/Spring16_HZZ_V1/electronID_mva_Spring16_HZZ_V1_EB1_10.weights.xml'
p230
aS'RecoEgamma/ElectronIdentification/data/Spring16_HZZ_V1/electronID_mva_Spring16_HZZ_V1_EB2_10.weights.xml'
p231
aS'RecoEgamma/ElectronIdentification/data/Spring16_HZZ_V1/electronID_mva_Spring16_HZZ_V1_EE_10.weights.xml'
p232
atp233
Rp234
(dp235
g14
I00
sg32
I01
sg15
I00
sg33
I1
sbsg100
g0
(g101
g2
Ntp236
Rp237
(dp238
g14
I00
sg32
I01
sg105
S'ElectronMVAEstimatorRun2Spring16HZZ'
p239
sg15
I00
sbsg107
g0
(g101
g2
Ntp240
Rp241
(dp242
g14
I00
sg32
I01
sg105
S'V1'
p243
sg15
I00
sbsg11
(lp244
g100
ag117
ag122
ag127
ag89
ag107
asg34
S'mvaEleID_Spring16_HZZ_V1_producer_config'
p245
sg15
I00
sbag0
(g85
g2
Ntp246
Rp247
(dp248
g14
I00
sg32
I01
sg117
g0
(g68
g2
Ntp249
Rp250
(dp251
g14
I00
sg32
I01
sg15
I00
sg72
g121
sg74
g77
sg76
g77
sbsg122
g0
(g68
g2
Ntp252
Rp253
(dp254
g14
I00
sg32
I01
sg15
I00
sg72
g126
sg74
g77
sg76
g77
sbsg127
g0
(g68
g2
Ntp255
Rp256
(dp257
g14
I00
sg32
I01
sg15
I00
sg72
S'reducedEgamma'
p258
sg74
g77
sg76
S'reducedConversions'
p259
sbsg89
g0
(g19
g20
(lp260
S'RecoEgamma/ElectronIdentification/data/Spring16_GeneralPurpose_V1/electronID_mva_Spring16_GeneralPurpose_V1_EB1_10.weights.xml'
p261
aS'RecoEgamma/ElectronIdentification/data/Spring16_GeneralPurpose_V1/electronID_mva_Spring16_GeneralPurpose_V1_EB2_10.weights.xml'
p262
aS'RecoEgamma/ElectronIdentification/data/Spring16_GeneralPurpose_V1/electronID_mva_Spring16_GeneralPurpose_V1_EE_10.weights.xml'
p263
atp264
Rp265
(dp266
g14
I00
sg32
I01
sg15
I00
sg33
I1
sbsg100
g0
(g101
g2
Ntp267
Rp268
(dp269
g14
I00
sg32
I01
sg105
S'ElectronMVAEstimatorRun2Spring16GeneralPurpose'
p270
sg15
I00
sbsg107
g0
(g101
g2
Ntp271
Rp272
(dp273
g14
I00
sg32
I01
sg105
g243
sg15
I00
sbsg11
(lp274
g100
ag117
ag122
ag127
ag89
ag107
asg34
S'mvaEleID_Spring16_GeneralPurpose_V1_producer_config'
p275
sg15
I00
sbag0
(g85
g2
Ntp276
Rp277
(dp278
g14
I00
sg32
I01
sg15
I00
sS'varNames'
p279
g0
(g19
g20
(lp280
S'ele_oldsigmaietaieta'
p281
aS'ele_oldsigmaiphiiphi'
p282
aS'ele_oldcircularity'
p283
aS'ele_oldr9'
p284
aS'ele_scletawidth'
p285
aS'ele_sclphiwidth'
p286
aS'ele_oldhe'
p287
aS'ele_kfhits'
p288
aS'ele_kfchi2'
p289
aS'ele_gsfchi2'
p290
aS'ele_fbrem'
p291
aS'ele_gsfhits'
p292
aS'ele_expected_inner_hits'
p293
aS'ele_conversionVertexFitProbability'
p294
aS'ele_ep'
p295
aS'ele_eelepout'
p296
aS'ele_IoEmIop'
p297
aS'ele_deltaetain'
p298
aS'ele_deltaphiin'
p299
aS'ele_deltaetaseed'
p300
aS'rho'
p301
aS'ele_psEoverEraw'
p302
atp303
Rp304
(dp305
g14
I00
sg32
I01
sg15
I00
sg33
I1
sbsg122
g0
(g68
g2
Ntp306
Rp307
(dp308
g14
I00
sg32
I01
sg15
I00
sg72
g126
sg74
g77
sg76
g77
sbsg127
g0
(g68
g2
Ntp309
Rp310
(dp311
g14
I00
sg32
I01
sg15
I00
sg72
S'reducedEgamma'
p312
sg74
g77
sg76
S'reducedConversions'
p313
sbsg89
g0
(g19
g20
(lp314
S'RecoEgamma/ElectronIdentification/data/Fall17/EIDmva_EB1_5_2017_puinfo_BDT.weights.xml'
p315
aS'RecoEgamma/ElectronIdentification/data/Fall17/EIDmva_EB2_5_2017_puinfo_BDT.weights.xml'
p316
aS'RecoEgamma/ElectronIdentification/data/Fall17/EIDmva_EE_5_2017_puinfo_BDT.weights.xml'
p317
aS'RecoEgamma/ElectronIdentification/data/Fall17/EIDmva_EB1_10_2017_puinfo_BDT.weights.xml'
p318
aS'RecoEgamma/ElectronIdentification/data/Fall17/EIDmva_EB2_10_2017_puinfo_BDT.weights.xml'
p319
aS'RecoEgamma/ElectronIdentification/data/Fall17/EIDmva_EE_10_2017_puinfo_BDT.weights.xml'
p320
atp321
Rp322
(dp323
g14
I00
sg32
I01
sg15
I00
sg33
I1
sbsS'ptSplit'
p324
g0
(cFWCore.ParameterSet.Types
double
p325
g2
Ntp326
Rp327
(dp328
g14
I00
sg32
I01
sg105
F10.0
sg15
I00
sbsS'ebSplit'
p329
g0
(g325
g2
Ntp330
Rp331
(dp332
g14
I00
sg32
I01
sg105
F0.8
sg15
I00
sbsg100
g0
(g101
g2
Ntp333
Rp334
(dp335
g14
I00
sg32
I01
sg105
S'ElectronMVAEstimatorRun2Fall17NoIso'
p336
sg15
I00
sbsS'clipLower'
p337
g0
(cFWCore.ParameterSet.Types
vdouble
p338
g20
(lp339
F-inf
aF-inf
aF-1.0
aF-inf
aF-inf
aF-inf
aF-inf
aF-inf
aF-inf
aF-inf
aF-1.0
aF-inf
aF-inf
aF-inf
aF-inf
aF-inf
aF-inf
aF-0.06
aF-0.6
aF-0.2
aF-inf
aF-inf
atp340
Rp341
(dp342
g14
I00
sg32
I01
sg15
I00
sbsg107
g0
(g101
g2
Ntp343
Rp344
(dp345
g14
I00
sg32
I01
sg105
g243
sg15
I00
sbsS'clipUpper'
p346
g0
(g338
g20
(lp347
Finf
aFinf
aF2.0
aF5.0
aFinf
aFinf
aFinf
aFinf
aF10.0
aF200.0
aFinf
aFinf
aFinf
aFinf
aF20.0
aF20.0
aFinf
aF0.06
aF0.6
aF0.2
aFinf
aFinf
atp348
Rp349
(dp350
g14
I00
sg32
I01
sg15
I00
sbsg11
(lp351
g337
ag329
ag117
ag122
ag127
ag89
ag100
ag324
ag279
ag107
ag346
aS'ebeeSplit'
p352
asg34
S'mvaEleID_Fall17_noIso_V1_producer_config'
p353
sg352
g0
(g325
g2
Ntp354
Rp355
(dp356
g14
I00
sg32
I01
sg105
F1.479
sg15
I00
sbsg117
g0
(g68
g2
Ntp357
Rp358
(dp359
g14
I00
sg32
I01
sg15
I00
sg72
g121
sg74
g77
sg76
g77
sbsbag0
(g85
g2
Ntp360
Rp361
(dp362
g14
I00
sg32
I01
sg15
I00
sg279
g0
(g19
g20
(lp363
g281
ag282
ag283
ag284
ag285
ag286
ag287
ag288
ag289
ag290
ag291
ag292
ag293
ag294
ag295
ag296
ag297
ag298
ag299
ag300
aS'ele_pfPhotonIso'
p364
aS'ele_pfChargedHadIso'
p365
aS'ele_pfNeutralHadIso'
p366
ag301
ag302
atp367
Rp368
(dp369
g14
I00
sg32
I01
sg15
I00
sg33
I1
sbsg122
g0
(g68
g2
Ntp370
Rp371
(dp372
g14
I00
sg32
I01
sg15
I00
sg72
g126
sg74
g77
sg76
g77
sbsg127
g0
(g68
g2
Ntp373
Rp374
(dp375
g14
I00
sg32
I01
sg15
I00
sg72
S'reducedEgamma'
p376
sg74
g77
sg76
S'reducedConversions'
p377
sbsg89
g0
(g19
g20
(lp378
S'RecoEgamma/ElectronIdentification/data/Fall17/EIDmva_EB1_5_2017_puinfo_iso_BDT.weights.xml'
p379
aS'RecoEgamma/ElectronIdentification/data/Fall17/EIDmva_EB2_5_2017_puinfo_iso_BDT.weights.xml'
p380
aS'RecoEgamma/ElectronIdentification/data/Fall17/EIDmva_EE_5_2017_puinfo_iso_BDT.weights.xml'
p381
aS'RecoEgamma/ElectronIdentification/data/Fall17/EIDmva_EB1_10_2017_puinfo_iso_BDT.weights.xml'
p382
aS'RecoEgamma/ElectronIdentification/data/Fall17/EIDmva_EB2_10_2017_puinfo_iso_BDT.weights.xml'
p383
aS'RecoEgamma/ElectronIdentification/data/Fall17/EIDmva_EE_10_2017_puinfo_iso_BDT.weights.xml'
p384
atp385
Rp386
(dp387
g14
I00
sg32
I01
sg15
I00
sg33
I1
sbsg324
g0
(g325
g2
Ntp388
Rp389
(dp390
g14
I00
sg32
I01
sg105
F10.0
sg15
I00
sbsg329
g0
(g325
g2
Ntp391
Rp392
(dp393
g14
I00
sg32
I01
sg105
F0.8
sg15
I00
sbsg100
g0
(g101
g2
Ntp394
Rp395
(dp396
g14
I00
sg32
I01
sg105
S'ElectronMVAEstimatorRun2Fall17Iso'
p397
sg15
I00
sbsg337
g0
(g338
g20
(lp398
F-inf
aF-inf
aF-1.0
aF-inf
aF-inf
aF-inf
aF-inf
aF-inf
aF-inf
aF-inf
aF-1.0
aF-inf
aF-inf
aF-inf
aF-inf
aF-inf
aF-inf
aF-0.06
aF-0.6
aF-0.2
aF-inf
aF-inf
aF-inf
aF-inf
aF-inf
atp399
Rp400
(dp401
g14
I00
sg32
I01
sg15
I00
sbsg107
g0
(g101
g2
Ntp402
Rp403
(dp404
g14
I00
sg32
I01
sg105
g243
sg15
I00
sbsg346
g0
(g338
g20
(lp405
Finf
aFinf
aF2.0
aF5.0
aFinf
aFinf
aFinf
aFinf
aF10.0
aF200.0
aFinf
aFinf
aFinf
aFinf
aF20.0
aF20.0
aFinf
aF0.06
aF0.6
aF0.2
aFinf
aFinf
aFinf
aFinf
aFinf
atp406
Rp407
(dp408
g14
I00
sg32
I01
sg15
I00
sbsg11
(lp409
g337
ag329
ag117
ag122
ag127
ag89
ag100
ag324
ag279
ag107
ag346
ag352
asg34
S'mvaEleID_Fall17_iso_V1_producer_config'
p410
sg352
g0
(g325
g2
Ntp411
Rp412
(dp413
g14
I00
sg32
I01
sg105
F1.479
sg15
I00
sbsg117
g0
(g68
g2
Ntp414
Rp415
(dp416
g14
I00
sg32
I01
sg15
I00
sg72
g121
sg74
g77
sg76
g77
sbsbatp417
Rp418
(dp419
g14
I00
sg32
I01
sg34
S'mvaConfigsForEleProducer'
p420
sg15
I00
sg33
I1
sbsg16
I48
sg34
S'electronMVAValueMapProducer'
p421
sg35
S'ElectronMVAValueMapProducer'
p422
sb(lp423
g62
a(lp424
Na(lp425
g0
(g60
g2
Ntp426
Rp427
(dp428
g11
(lp429
g65
ag66
aS'esReducedRecHitCollectionMiniAOD'
p430
aS'eeReducedRecHitCollection'
p431
aS'ebReducedRecHitCollectionMiniAOD'
p432
aS'eeReducedRecHitCollectionMiniAOD'
p433
aS'useFull5x5'
p434
aS'esReducedRecHitCollection'
p435
aS'ebReducedRecHitCollection'
p436
asg14
I00
sg66
g0
(g68
g2
Ntp437
Rp438
(dp439
g14
I00
sg32
I01
sg15
I00
sg72
g73
sg74
g75
sg76
g77
sbsg15
I00
sg65
g0
(g68
g2
Ntp440
Rp441
(dp442
g14
I00
sg32
I01
sg15
I00
sg72
g81
sg74
g77
sg76
g77
sbsg17
S'/cvmfs/cms.cern.ch/slc6_amd64_gcc630/cms/cmssw-patch/CMSSW_9_4_6_patch1/python/RecoEgamma/ElectronIdentification/ElectronRegressionValueMapProducer_cfi.py'
p443
sg431
g0
(g68
g2
Ntp444
Rp445
(dp446
g14
I00
sg32
I01
sg15
I00
sg72
S'reducedEcalRecHitsEE'
p447
sg74
g77
sg76
g77
sbsg435
g0
(g68
g2
Ntp448
Rp449
(dp450
g14
I00
sg32
I01
sg15
I00
sg72
S'reducedEcalRecHitsES'
p451
sg74
g77
sg76
g77
sbsg432
g0
(g68
g2
Ntp452
Rp453
(dp454
g14
I00
sg32
I01
sg15
I00
sg72
S'reducedEgamma'
p455
sg74
g77
sg76
S'reducedEBRecHits'
p456
sbsg433
g0
(g68
g2
Ntp457
Rp458
(dp459
g14
I00
sg32
I01
sg15
I00
sg72
S'reducedEgamma'
p460
sg74
g77
sg76
S'reducedEERecHits'
p461
sbsg16
I20
sg434
g0
(cFWCore.ParameterSet.Types
bool
p462
g2
Ntp463
Rp464
(dp465
g14
I00
sg32
I01
sg105
I00
sg15
I00
sbsg430
g0
(g68
g2
Ntp466
Rp467
(dp468
g14
I00
sg32
I01
sg15
I00
sg72
S'reducedEgamma'
p469
sg74
g77
sg76
S'reducedESRecHits'
p470
sbsg34
S'electronRegressionValueMapProducer'
p471
sg35
S'ElectronRegressionValueMapProducer'
p472
sg436
g0
(g68
g2
Ntp473
Rp474
(dp475
g14
I00
sg32
I01
sg15
I00
sg72
S'reducedEcalRecHitsEB'
p476
sg74
g77
sg76
g77
sbsba(lp477
g0
(g60
g2
Ntp478
Rp479
(dp480
g11
(lp481
S'physicsObjectIDs'
p482
aS'physicsObjectSrc'
p483
asg14
I00
sg15
I01
sg16
I6
sg17
S'/cvmfs/cms.cern.ch/slc6_amd64_gcc630/cms/cmssw-patch/CMSSW_9_4_6_patch1/python/RecoEgamma/ElectronIdentification/egmGsfElectronIDs_cfi.py'
p484
sg483
g0
(g68
g2
Ntp485
Rp486
(dp487
g14
I00
sg32
I01
sg15
I00
sg72
g73
sg74
g77
sg76
g77
sbsg482
g0
(g83
g20
(lp488
g0
(g85
g2
Ntp489
Rp490
(dp491
g14
I00
sg32
I01
sS'idDefinition'
p492
g0
(g85
g2
Ntp493
Rp494
(dp495
g14
I00
sg32
I01
sg15
I01
sS'idName'
p496
g0
(g101
g2
Ntp497
Rp498
(dp499
g14
I00
sg32
I01
sg105
S'cutBasedElectronID-Fall17-94X-V1-loose'
p500
sg15
I00
sbsS'cutFlow'
p501
g0
(g83
g20
(lp502
g0
(g85
g2
Ntp503
Rp504
(dp505
g14
I00
sg32
I01
sg15
I00
sS'cutName'
p506
g0
(g101
g2
Ntp507
Rp508
(dp509
g14
I00
sg32
I01
sg105
S'MinPtCut'
p510
sg15
I00
sbsS'needsAdditionalProducts'
p511
g0
(g462
g2
Ntp512
Rp513
(dp514
g14
I00
sg32
I01
sg105
I00
sg15
I00
sbsS'isIgnored'
p515
g0
(g462
g2
Ntp516
Rp517
(dp518
g14
I00
sg32
I01
sg105
I00
sg15
I00
sbsg11
(lp519
g511
aS'minPt'
p520
ag506
ag515
asg520
g0
(g325
g2
Ntp521
Rp522
(dp523
g14
I00
sg32
I01
sg105
F5.0
sg15
I00
sbsbag0
(g85
g2
Ntp524
Rp525
(dp526
g14
I00
sg32
I01
sg15
I00
sg506
g0
(g101
g2
Ntp527
Rp528
(dp529
g14
I00
sg32
I01
sg105
S'GsfEleSCEtaMultiRangeCut'
p530
sg15
I00
sbsg511
g0
(g462
g2
Ntp531
Rp532
(dp533
g14
I00
sg32
I01
sg105
I00
sg15
I00
sbsg515
g0
(g462
g2
Ntp534
Rp535
(dp536
g14
I00
sg32
I01
sg105
I00
sg15
I00
sbsS'allowedEtaRanges'
p537
g0
(g83
g20
(lp538
g0
(g85
g2
Ntp539
Rp540
(dp541
g14
I00
sg32
I01
sg15
I00
sS'maxEta'
p542
g0
(g325
g2
Ntp543
Rp544
(dp545
g14
I00
sg32
I01
sg105
F1.479
sg15
I00
sbsS'minEta'
p546
g0
(g325
g2
Ntp547
Rp548
(dp549
g14
I00
sg32
I01
sg105
F0.0
sg15
I00
sbsg11
(lp550
g542
ag546
asbag0
(g85
g2
Ntp551
Rp552
(dp553
g14
I00
sg32
I01
sg15
I00
sg542
g0
(g325
g2
Ntp554
Rp555
(dp556
g14
I00
sg32
I01
sg105
F2.5
sg15
I00
sbsg546
g0
(g325
g2
Ntp557
Rp558
(dp559
g14
I00
sg32
I01
sg105
F1.479
sg15
I00
sbsg11
(lp560
g542
ag546
asbatp561
Rp562
(dp563
g14
I00
sg32
I01
sg15
I00
sg33
I1
sbsg11
(lp564
g511
aS'useAbsEta'
p565
ag506
ag537
ag515
asg565
g0
(g462
g2
Ntp566
Rp567
(dp568
g14
I00
sg32
I01
sg105
I01
sg15
I00
sbsbag0
(g85
g2
Ntp569
Rp570
(dp571
g14
I00
sg32
I01
sg15
I00
sg506
g0
(g101
g2
Ntp572
Rp573
(dp574
g14
I00
sg32
I01
sg105
S'GsfEleDEtaInSeedCut'
p575
sg15
I00
sbsS'barrelCutOff'
p576
g0
(g325
g2
Ntp577
Rp578
(dp579
g14
I00
sg32
I01
sg105
F1.479
sg15
I00
sbsS'dEtaInSeedCutValueEB'
p580
g0
(g325
g2
Ntp581
Rp582
(dp583
g14
I00
sg32
I01
sg105
F0.00387
sg15
I00
sbsg511
g0
(g462
g2
Ntp584
Rp585
(dp586
g14
I00
sg32
I01
sg105
I00
sg15
I00
sbsS'dEtaInSeedCutValueEE'
p587
g0
(g325
g2
Ntp588
Rp589
(dp590
g14
I00
sg32
I01
sg105
F0.0072
sg15
I00
sbsg11
(lp591
g506
ag576
ag580
ag511
ag587
ag515
asg515
g0
(g462
g2
Ntp592
Rp593
(dp594
g14
I00
sg32
I01
sg105
I00
sg15
I00
sbsbag0
(g85
g2
Ntp595
Rp596
(dp597
g14
I00
sg32
I01
sg15
I00
sg506
g0
(g101
g2
Ntp598
Rp599
(dp600
g14
I00
sg32
I01
sg105
S'GsfEleDPhiInCut'
p601
sg15
I00
sbsg511
g0
(g462
g2
Ntp602
Rp603
(dp604
g14
I00
sg32
I01
sg105
I00
sg15
I00
sbsS'dPhiInCutValueEB'
p605
g0
(g325
g2
Ntp606
Rp607
(dp608
g14
I00
sg32
I01
sg105
F0.0716
sg15
I00
sbsg576
g0
(g325
g2
Ntp609
Rp610
(dp611
g14
I00
sg32
I01
sg105
F1.479
sg15
I00
sbsS'dPhiInCutValueEE'
p612
g0
(g325
g2
Ntp613
Rp614
(dp615
g14
I00
sg32
I01
sg105
F0.147
sg15
I00
sbsg11
(lp616
g506
ag511
ag605
ag576
ag612
ag515
asg515
g0
(g462
g2
Ntp617
Rp618
(dp619
g14
I00
sg32
I01
sg105
I00
sg15
I00
sbsbag0
(g85
g2
Ntp620
Rp621
(dp622
g14
I00
sg32
I01
sg15
I00
sg506
g0
(g101
g2
Ntp623
Rp624
(dp625
g14
I00
sg32
I01
sg105
S'GsfEleFull5x5SigmaIEtaIEtaCut'
p626
sg15
I00
sbsg576
g0
(g325
g2
Ntp627
Rp628
(dp629
g14
I00
sg32
I01
sg105
F1.479
sg15
I00
sbsg511
g0
(g462
g2
Ntp630
Rp631
(dp632
g14
I00
sg32
I01
sg105
I00
sg15
I00
sbsS'full5x5SigmaIEtaIEtaCutValueEB'
p633
g0
(g325
g2
Ntp634
Rp635
(dp636
g14
I00
sg32
I01
sg105
F0.0105
sg15
I00
sbsg11
(lp637
g506
ag576
ag511
ag515
aS'full5x5SigmaIEtaIEtaCutValueEE'
p638
ag633
asg638
g0
(g325
g2
Ntp639
Rp640
(dp641
g14
I00
sg32
I01
sg105
F0.0356
sg15
I00
sbsg515
g0
(g462
g2
Ntp642
Rp643
(dp644
g14
I00
sg32
I01
sg105
I00
sg15
I00
sbsbag0
(g85
g2
Ntp645
Rp646
(dp647
g14
I00
sg32
I01
sS'endcapCr'
p648
g0
(g325
g2
Ntp649
Rp650
(dp651
g14
I00
sg32
I01
sg105
F0.201
sg15
I00
sbsS'endcapC0'
p652
g0
(g325
g2
Ntp653
Rp654
(dp655
g14
I00
sg32
I01
sg105
F0.0414
sg15
I00
sbsg506
g0
(g101
g2
Ntp656
Rp657
(dp658
g14
I00
sg32
I01
sg105
S'GsfEleHadronicOverEMEnergyScaledCut'
p659
sg15
I00
sbsg511
g0
(g462
g2
Ntp660
Rp661
(dp662
g14
I00
sg32
I01
sg105
I01
sg15
I00
sbsS'barrelCE'
p663
g0
(g325
g2
Ntp664
Rp665
(dp666
g14
I00
sg32
I01
sg105
F1.12
sg15
I00
sbsg576
g0
(g325
g2
Ntp667
Rp668
(dp669
g14
I00
sg32
I01
sg105
F1.479
sg15
I00
sbsS'endcapCE'
p670
g0
(g325
g2
Ntp671
Rp672
(dp673
g14
I00
sg32
I01
sg105
F0.5
sg15
I00
sbsg301
g0
(g68
g2
Ntp674
Rp675
(dp676
g14
I00
sg32
I01
sg15
I00
sg72
S'fixedGridRhoFastjetAll'
p677
sg74
g77
sg76
g77
sbsg11
(lp678
g652
ag648
ag506
ag511
ag663
ag576
ag670
ag301
aS'barrelC0'
p679
ag515
aS'barrelCr'
p680
asg680
g0
(g325
g2
Ntp681
Rp682
(dp683
g14
I00
sg32
I01
sg105
F0.0368
sg15
I00
sbsg679
g0
(g325
g2
Ntp684
Rp685
(dp686
g14
I00
sg32
I01
sg105
F0.05
sg15
I00
sbsg515
g0
(g462
g2
Ntp687
Rp688
(dp689
g14
I00
sg32
I01
sg105
I00
sg15
I00
sbsg15
I00
sbag0
(g85
g2
Ntp690
Rp691
(dp692
g14
I00
sg32
I01
sg15
I00
sg506
g0
(g101
g2
Ntp693
Rp694
(dp695
g14
I00
sg32
I01
sg105
S'GsfEleEInverseMinusPInverseCut'
p696
sg15
I00
sbsg576
g0
(g325
g2
Ntp697
Rp698
(dp699
g14
I00
sg32
I01
sg105
F1.479
sg15
I00
sbsg511
g0
(g462
g2
Ntp700
Rp701
(dp702
g14
I00
sg32
I01
sg105
I00
sg15
I00
sbsS'eInverseMinusPInverseCutValueEB'
p703
g0
(g325
g2
Ntp704
Rp705
(dp706
g14
I00
sg32
I01
sg105
F0.129
sg15
I00
sbsS'eInverseMinusPInverseCutValueEE'
p707
g0
(g325
g2
Ntp708
Rp709
(dp710
g14
I00
sg32
I01
sg105
F0.0875
sg15
I00
sbsg11
(lp711
g506
ag576
ag511
ag703
ag707
ag515
asg515
g0
(g462
g2
Ntp712
Rp713
(dp714
g14
I00
sg32
I01
sg105
I00
sg15
I00
sbsbag0
(g85
g2
Ntp715
Rp716
(dp717
g14
I00
sg32
I01
sg15
I00
sg506
g0
(g101
g2
Ntp718
Rp719
(dp720
g14
I00
sg32
I01
sg105
S'GsfEleEffAreaPFIsoCut'
p721
sg15
I00
sbsg576
g0
(g325
g2
Ntp722
Rp723
(dp724
g14
I00
sg32
I01
sg105
F1.479
sg15
I00
sbsS'isoCutEELowPt'
p725
g0
(g325
g2
Ntp726
Rp727
(dp728
g14
I00
sg32
I01
sg105
F0.146
sg15
I00
sbsS'ptCutOff'
p729
g0
(g325
g2
Ntp730
Rp731
(dp732
g14
I00
sg32
I01
sg105
F20.0
sg15
I00
sbsS'isoCutEEHighPt'
p733
g0
(g325
g2
Ntp734
Rp735
(dp736
g14
I00
sg32
I01
sg105
F0.146
sg15
I00
sbsS'isoCutEBHighPt'
p737
g0
(g325
g2
Ntp738
Rp739
(dp740
g14
I00
sg32
I01
sg105
F0.133
sg15
I00
sbsg511
g0
(g462
g2
Ntp741
Rp742
(dp743
g14
I00
sg32
I01
sg105
I01
sg15
I00
sbsg301
g0
(g68
g2
Ntp744
Rp745
(dp746
g14
I00
sg32
I01
sg15
I00
sg72
g677
sg74
g77
sg76
g77
sbsg11
(lp747
g506
ag576
ag725
ag729
ag733
ag737
ag511
ag301
aS'effAreasConfigFile'
p748
aS'isRelativeIso'
p749
ag515
aS'isoCutEBLowPt'
p750
asg749
g0
(g462
g2
Ntp751
Rp752
(dp753
g14
I00
sg32
I01
sg105
I01
sg15
I00
sbsg748
g0
(cFWCore.ParameterSet.Types
FileInPath
p754
g2
Ntp755
Rp756
(dp757
g14
I00
sg32
I01
sg105
S'RecoEgamma/ElectronIdentification/data/Fall17/effAreaElectrons_cone03_pfNeuHadronsAndPhotons_92X.txt'
p758
sg15
I00
sbsg515
g0
(g462
g2
Ntp759
Rp760
(dp761
g14
I00
sg32
I01
sg105
I00
sg15
I00
sbsg750
g0
(g325
g2
Ntp762
Rp763
(dp764
g14
I00
sg32
I01
sg105
F0.133
sg15
I00
sbsbag0
(g85
g2
Ntp765
Rp766
(dp767
g14
I00
sg32
I01
sS'beamspotSrc'
p768
g0
(g68
g2
Ntp769
Rp770
(dp771
g14
I00
sg32
I01
sg15
I00
sg72
g121
sg74
g77
sg76
g77
sbsg15
I00
sg506
g0
(g101
g2
Ntp772
Rp773
(dp774
g14
I00
sg32
I01
sg105
S'GsfEleConversionVetoCut'
p775
sg15
I00
sbsg511
g0
(g462
g2
Ntp776
Rp777
(dp778
g14
I00
sg32
I01
sg105
I01
sg15
I00
sbsg515
g0
(g462
g2
Ntp779
Rp780
(dp781
g14
I00
sg32
I01
sg105
I00
sg15
I00
sbsS'conversionSrc'
p782
g0
(g68
g2
Ntp783
Rp784
(dp785
g14
I00
sg32
I01
sg15
I00
sg72
g126
sg74
g77
sg76
g77
sbsS'conversionSrcMiniAOD'
p786
g0
(g68
g2
Ntp787
Rp788
(dp789
g14
I00
sg32
I01
sg15
I00
sg72
S'reducedEgamma'
p790
sg74
g77
sg76
S'reducedConversions'
p791
sbsg11
(lp792
g768
ag506
ag511
ag515
ag786
ag782
asbag0
(g85
g2
Ntp793
Rp794
(dp795
g14
I00
sg32
I01
sg15
I00
sg506
g0
(g101
g2
Ntp796
Rp797
(dp798
g14
I00
sg32
I01
sg105
S'GsfEleMissingHitsCut'
p799
sg15
I00
sbsg576
g0
(g325
g2
Ntp800
Rp801
(dp802
g14
I00
sg32
I01
sg105
F1.479
sg15
I00
sbsg511
g0
(g462
g2
Ntp803
Rp804
(dp805
g14
I00
sg32
I01
sg105
I00
sg15
I00
sbsg11
(lp806
g506
ag576
ag511
aS'maxMissingHitsEE'
p807
aS'maxMissingHitsEB'
p808
ag515
asg807
g0
(cFWCore.ParameterSet.Types
uint32
p809
g2
Ntp810
Rp811
(dp812
g14
I00
sg32
I01
sg105
I1
sg15
I00
sbsg808
g0
(g809
g2
Ntp813
Rp814
(dp815
g14
I00
sg32
I01
sg105
I1
sg15
I00
sbsg515
g0
(g462
g2
Ntp816
Rp817
(dp818
g14
I00
sg32
I01
sg105
I00
sg15
I00
sbsbatp819
Rp820
(dp821
g14
I00
sg32
I01
sg15
I00
sg33
I1
sbsS'isPOGApproved'
p822
g0
(g462
g2
Ntp823
Rp824
(dp825
g14
I00
sg32
I00
sg105
I01
sg15
I00
sbsg11
(lp826
g496
ag501
ag822
asbsg15
I00
sS'idMD5'
p827
g0
(g101
g2
Ntp828
Rp829
(dp830
g14
I00
sg32
I01
sg105
S'0b8456d622494441fe713a6858e0f7c1'
p831
sg15
I00
sbsg822
g0
(g462
g2
Ntp832
Rp833
(dp834
g14
I00
sg32
I00
sg105
I01
sg15
I00
sbsg11
(lp835
g492
ag827
ag822
asbag0
(g85
g2
Ntp836
Rp837
(dp838
g14
I00
sg32
I01
sg492
g0
(g85
g2
Ntp839
Rp840
(dp841
g14
I00
sg32
I01
sg15
I01
sg496
g0
(g101
g2
Ntp842
Rp843
(dp844
g14
I00
sg32
I01
sg105
S'cutBasedElectronID-Fall17-94X-V1-medium'
p845
sg15
I00
sbsg501
g0
(g83
g20
(lp846
g0
(g85
g2
Ntp847
Rp848
(dp849
g14
I00
sg32
I01
sg15
I00
sg506
g0
(g101
g2
Ntp850
Rp851
(dp852
g14
I00
sg32
I01
sg105
g510
sg15
I00
sbsg511
g0
(g462
g2
Ntp853
Rp854
(dp855
g14
I00
sg32
I01
sg105
I00
sg15
I00
sbsg515
g0
(g462
g2
Ntp856
Rp857
(dp858
g14
I00
sg32
I01
sg105
I00
sg15
I00
sbsg11
(lp859
g511
ag520
ag506
ag515
asg520
g0
(g325
g2
Ntp860
Rp861
(dp862
g14
I00
sg32
I01
sg105
F5.0
sg15
I00
sbsbag0
(g85
g2
Ntp863
Rp864
(dp865
g14
I00
sg32
I01
sg15
I00
sg506
g0
(g101
g2
Ntp866
Rp867
(dp868
g14
I00
sg32
I01
sg105
g530
sg15
I00
sbsg511
g0
(g462
g2
Ntp869
Rp870
(dp871
g14
I00
sg32
I01
sg105
I00
sg15
I00
sbsg515
g0
(g462
g2
Ntp872
Rp873
(dp874
g14
I00
sg32
I01
sg105
I00
sg15
I00
sbsg537
g0
(g83
g20
(lp875
g0
(g85
g2
Ntp876
Rp877
(dp878
g14
I00
sg32
I01
sg15
I00
sg542
g0
(g325
g2
Ntp879
Rp880
(dp881
g14
I00
sg32
I01
sg105
F1.479
sg15
I00
sbsg546
g0
(g325
g2
Ntp882
Rp883
(dp884
g14
I00
sg32
I01
sg105
F0.0
sg15
I00
sbsg11
(lp885
g542
ag546
asbag0
(g85
g2
Ntp886
Rp887
(dp888
g14
I00
sg32
I01
sg15
I00
sg542
g0
(g325
g2
Ntp889
Rp890
(dp891
g14
I00
sg32
I01
sg105
F2.5
sg15
I00
sbsg546
g0
(g325
g2
Ntp892
Rp893
(dp894
g14
I00
sg32
I01
sg105
F1.479
sg15
I00
sbsg11
(lp895
g542
ag546
asbatp896
Rp897
(dp898
g14
I00
sg32
I01
sg15
I00
sg33
I1
sbsg11
(lp899
g511
ag565
ag506
ag537
ag515
asg565
g0
(g462
g2
Ntp900
Rp901
(dp902
g14
I00
sg32
I01
sg105
I01
sg15
I00
sbsbag0
(g85
g2
Ntp903
Rp904
(dp905
g14
I00
sg32
I01
sg15
I00
sg506
g0
(g101
g2
Ntp906
Rp907
(dp908
g14
I00
sg32
I01
sg105
g575
sg15
I00
sbsg576
g0
(g325
g2
Ntp909
Rp910
(dp911
g14
I00
sg32
I01
sg105
F1.479
sg15
I00
sbsg580
g0
(g325
g2
Ntp912
Rp913
(dp914
g14
I00
sg32
I01
sg105
F0.00365
sg15
I00
sbsg511
g0
(g462
g2
Ntp915
Rp916
(dp917
g14
I00
sg32
I01
sg105
I00
sg15
I00
sbsg587
g0
(g325
g2
Ntp918
Rp919
(dp920
g14
I00
sg32
I01
sg105
F0.00625
sg15
I00
sbsg11
(lp921
g506
ag576
ag580
ag511
ag587
ag515
asg515
g0
(g462
g2
Ntp922
Rp923
(dp924
g14
I00
sg32
I01
sg105
I00
sg15
I00
sbsbag0
(g85
g2
Ntp925
Rp926
(dp927
g14
I00
sg32
I01
sg15
I00
sg506
g0
(g101
g2
Ntp928
Rp929
(dp930
g14
I00
sg32
I01
sg105
g601
sg15
I00
sbsg511
g0
(g462
g2
Ntp931
Rp932
(dp933
g14
I00
sg32
I01
sg105
I00
sg15
I00
sbsg605
g0
(g325
g2
Ntp934
Rp935
(dp936
g14
I00
sg32
I01
sg105
F0.0588
sg15
I00
sbsg576
g0
(g325
g2
Ntp937
Rp938
(dp939
g14
I00
sg32
I01
sg105
F1.479
sg15
I00
sbsg612
g0
(g325
g2
Ntp940
Rp941
(dp942
g14
I00
sg32
I01
sg105
F0.0355
sg15
I00
sbsg11
(lp943
g506
ag511
ag605
ag576
ag612
ag515
asg515
g0
(g462
g2
Ntp944
Rp945
(dp946
g14
I00
sg32
I01
sg105
I00
sg15
I00
sbsbag0
(g85
g2
Ntp947
Rp948
(dp949
g14
I00
sg32
I01
sg15
I00
sg506
g0
(g101
g2
Ntp950
Rp951
(dp952
g14
I00
sg32
I01
sg105
g626
sg15
I00
sbsg576
g0
(g325
g2
Ntp953
Rp954
(dp955
g14
I00
sg32
I01
sg105
F1.479
sg15
I00
sbsg511
g0
(g462
g2
Ntp956
Rp957
(dp958
g14
I00
sg32
I01
sg105
I00
sg15
I00
sbsg633
g0
(g325
g2
Ntp959
Rp960
(dp961
g14
I00
sg32
I01
sg105
F0.0105
sg15
I00
sbsg11
(lp962
g506
ag576
ag511
ag515
ag638
ag633
asg638
g0
(g325
g2
Ntp963
Rp964
(dp965
g14
I00
sg32
I01
sg105
F0.0309
sg15
I00
sbsg515
g0
(g462
g2
Ntp966
Rp967
(dp968
g14
I00
sg32
I01
sg105
I00
sg15
I00
sbsbag0
(g85
g2
Ntp969
Rp970
(dp971
g14
I00
sg32
I01
sg648
g0
(g325
g2
Ntp972
Rp973
(dp974
g14
I00
sg32
I01
sg105
F0.201
sg15
I00
sbsg652
g0
(g325
g2
Ntp975
Rp976
(dp977
g14
I00
sg32
I01
sg105
F0.026
sg15
I00
sbsg506
g0
(g101
g2
Ntp978
Rp979
(dp980
g14
I00
sg32
I01
sg105
g659
sg15
I00
sbsg511
g0
(g462
g2
Ntp981
Rp982
(dp983
g14
I00
sg32
I01
sg105
I01
sg15
I00
sbsg663
g0
(g325
g2
Ntp984
Rp985
(dp986
g14
I00
sg32
I01
sg105
F1.12
sg15
I00
sbsg576
g0
(g325
g2
Ntp987
Rp988
(dp989
g14
I00
sg32
I01
sg105
F1.479
sg15
I00
sbsg670
g0
(g325
g2
Ntp990
Rp991
(dp992
g14
I00
sg32
I01
sg105
F0.5
sg15
I00
sbsg301
g0
(g68
g2
Ntp993
Rp994
(dp995
g14
I00
sg32
I01
sg15
I00
sg72
g677
sg74
g77
sg76
g77
sbsg11
(lp996
g652
ag648
ag506
ag511
ag663
ag576
ag670
ag301
ag679
ag515
ag680
asg680
g0
(g325
g2
Ntp997
Rp998
(dp999
g14
I00
sg32
I01
sg105
F0.0368
sg15
I00
sbsg679
g0
(g325
g2
Ntp1000
Rp1001
(dp1002
g14
I00
sg32
I01
sg105
F0.026
sg15
I00
sbsg515
g0
(g462
g2
Ntp1003
Rp1004
(dp1005
g14
I00
sg32
I01
sg105
I00
sg15
I00
sbsg15
I00
sbag0
(g85
g2
Ntp1006
Rp1007
(dp1008
g14
I00
sg32
I01
sg15
I00
sg506
g0
(g101
g2
Ntp1009
Rp1010
(dp1011
g14
I00
sg32
I01
sg105
g696
sg15
I00
sbsg576
g0
(g325
g2
Ntp1012
Rp1013
(dp1014
g14
I00
sg32
I01
sg105
F1.479
sg15
I00
sbsg511
g0
(g462
g2
Ntp1015
Rp1016
(dp1017
g14
I00
sg32
I01
sg105
I00
sg15
I00
sbsg703
g0
(g325
g2
Ntp1018
Rp1019
(dp1020
g14
I00
sg32
I01
sg105
F0.0327
sg15
I00
sbsg707
g0
(g325
g2
Ntp1021
Rp1022
(dp1023
g14
I00
sg32
I01
sg105
F0.0335
sg15
I00
sbsg11
(lp1024
g506
ag576
ag511
ag703
ag707
ag515
asg515
g0
(g462
g2
Ntp1025
Rp1026
(dp1027
g14
I00
sg32
I01
sg105
I00
sg15
I00
sbsbag0
(g85
g2
Ntp1028
Rp1029
(dp1030
g14
I00
sg32
I01
sg15
I00
sg506
g0
(g101
g2
Ntp1031
Rp1032
(dp1033
g14
I00
sg32
I01
sg105
g721
sg15
I00
sbsg576
g0
(g325
g2
Ntp1034
Rp1035
(dp1036
g14
I00
sg32
I01
sg105
F1.479
sg15
I00
sbsg725
g0
(g325
g2
Ntp1037
Rp1038
(dp1039
g14
I00
sg32
I01
sg105
F0.143
sg15
I00
sbsg729
g0
(g325
g2
Ntp1040
Rp1041
(dp1042
g14
I00
sg32
I01
sg105
F20.0
sg15
I00
sbsg733
g0
(g325
g2
Ntp1043
Rp1044
(dp1045
g14
I00
sg32
I01
sg105
F0.143
sg15
I00
sbsg737
g0
(g325
g2
Ntp1046
Rp1047
(dp1048
g14
I00
sg32
I01
sg105
F0.0718
sg15
I00
sbsg511
g0
(g462
g2
Ntp1049
Rp1050
(dp1051
g14
I00
sg32
I01
sg105
I01
sg15
I00
sbsg301
g0
(g68
g2
Ntp1052
Rp1053
(dp1054
g14
I00
sg32
I01
sg15
I00
sg72
g677
sg74
g77
sg76
g77
sbsg11
(lp1055
g506
ag576
ag725
ag729
ag733
ag737
ag511
ag301
ag748
ag749
ag515
ag750
asg749
g0
(g462
g2
Ntp1056
Rp1057
(dp1058
g14
I00
sg32
I01
sg105
I01
sg15
I00
sbsg748
g0
(g754
g2
Ntp1059
Rp1060
(dp1061
g14
I00
sg32
I01
sg105
g758
sg15
I00
sbsg515
g0
(g462
g2
Ntp1062
Rp1063
(dp1064
g14
I00
sg32
I01
sg105
I00
sg15
I00
sbsg750
g0
(g325
g2
Ntp1065
Rp1066
(dp1067
g14
I00
sg32
I01
sg105
F0.0718
sg15
I00
sbsbag0
(g85
g2
Ntp1068
Rp1069
(dp1070
g14
I00
sg32
I01
sg768
g0
(g68
g2
Ntp1071
Rp1072
(dp1073
g14
I00
sg32
I01
sg15
I00
sg72
g121
sg74
g77
sg76
g77
sbsg15
I00
sg506
g0
(g101
g2
Ntp1074
Rp1075
(dp1076
g14
I00
sg32
I01
sg105
g775
sg15
I00
sbsg511
g0
(g462
g2
Ntp1077
Rp1078
(dp1079
g14
I00
sg32
I01
sg105
I01
sg15
I00
sbsg515
g0
(g462
g2
Ntp1080
Rp1081
(dp1082
g14
I00
sg32
I01
sg105
I00
sg15
I00
sbsg782
g0
(g68
g2
Ntp1083
Rp1084
(dp1085
g14
I00
sg32
I01
sg15
I00
sg72
g126
sg74
g77
sg76
g77
sbsg786
g0
(g68
g2
Ntp1086
Rp1087
(dp1088
g14
I00
sg32
I01
sg15
I00
sg72
S'reducedEgamma'
p1089
sg74
g77
sg76
S'reducedConversions'
p1090
sbsg11
(lp1091
g768
ag506
ag511
ag515
ag786
ag782
asbag0
(g85
g2
Ntp1092
Rp1093
(dp1094
g14
I00
sg32
I01
sg15
I00
sg506
g0
(g101
g2
Ntp1095
Rp1096
(dp1097
g14
I00
sg32
I01
sg105
g799
sg15
I00
sbsg576
g0
(g325
g2
Ntp1098
Rp1099
(dp1100
g14
I00
sg32
I01
sg105
F1.479
sg15
I00
sbsg511
g0
(g462
g2
Ntp1101
Rp1102
(dp1103
g14
I00
sg32
I01
sg105
I00
sg15
I00
sbsg11
(lp1104
g506
ag576
ag511
ag807
ag808
ag515
asg807
g0
(g809
g2
Ntp1105
Rp1106
(dp1107
g14
I00
sg32
I01
sg105
I1
sg15
I00
sbsg808
g0
(g809
g2
Ntp1108
Rp1109
(dp1110
g14
I00
sg32
I01
sg105
I1
sg15
I00
sbsg515
g0
(g462
g2
Ntp1111
Rp1112
(dp1113
g14
I00
sg32
I01
sg105
I00
sg15
I00
sbsbatp1114
Rp1115
(dp1116
g14
I00
sg32
I01
sg15
I00
sg33
I1
sbsg822
g0
(g462
g2
Ntp1117
Rp1118
(dp1119
g14
I00
sg32
I00
sg105
I01
sg15
I00
sbsg11
(lp1120
g496
ag501
ag822
asbsg15
I00
sg827
g0
(g101
g2
Ntp1121
Rp1122
(dp1123
g14
I00
sg32
I01
sg105
S'a238ee70910de53d36866e89768500e9'
p1124
sg15
I00
sbsg822
g0
(g462
g2
Ntp1125
Rp1126
(dp1127
g14
I00
sg32
I00
sg105
I01
sg15
I00
sbsg11
(lp1128
g492
ag827
ag822
asbag0
(g85
g2
Ntp1129
Rp1130
(dp1131
g14
I00
sg32
I01
sg492
g0
(g85
g2
Ntp1132
Rp1133
(dp1134
g14
I00
sg32
I01
sg15
I01
sg496
g0
(g101
g2
Ntp1135
Rp1136
(dp1137
g14
I00
sg32
I01
sg105
S'cutBasedElectronID-Fall17-94X-V1-tight'
p1138
sg15
I00
sbsg501
g0
(g83
g20
(lp1139
g0
(g85
g2
Ntp1140
Rp1141
(dp1142
g14
I00
sg32
I01
sg15
I00
sg506
g0
(g101
g2
Ntp1143
Rp1144
(dp1145
g14
I00
sg32
I01
sg105
g510
sg15
I00
sbsg511
g0
(g462
g2
Ntp1146
Rp1147
(dp1148
g14
I00
sg32
I01
sg105
I00
sg15
I00
sbsg515
g0
(g462
g2
Ntp1149
Rp1150
(dp1151
g14
I00
sg32
I01
sg105
I00
sg15
I00
sbsg11
(lp1152
g511
ag520
ag506
ag515
asg520
g0
(g325
g2
Ntp1153
Rp1154
(dp1155
g14
I00
sg32
I01
sg105
F5.0
sg15
I00
sbsbag0
(g85
g2
Ntp1156
Rp1157
(dp1158
g14
I00
sg32
I01
sg15
I00
sg506
g0
(g101
g2
Ntp1159
Rp1160
(dp1161
g14
I00
sg32
I01
sg105
g530
sg15
I00
sbsg511
g0
(g462
g2
Ntp1162
Rp1163
(dp1164
g14
I00
sg32
I01
sg105
I00
sg15
I00
sbsg515
g0
(g462
g2
Ntp1165
Rp1166
(dp1167
g14
I00
sg32
I01
sg105
I00
sg15
I00
sbsg537
g0
(g83
g20
(lp1168
g0
(g85
g2
Ntp1169
Rp1170
(dp1171
g14
I00
sg32
I01
sg15
I00
sg542
g0
(g325
g2
Ntp1172
Rp1173
(dp1174
g14
I00
sg32
I01
sg105
F1.479
sg15
I00
sbsg546
g0
(g325
g2
Ntp1175
Rp1176
(dp1177
g14
I00
sg32
I01
sg105
F0.0
sg15
I00
sbsg11
(lp1178
g542
ag546
asbag0
(g85
g2
Ntp1179
Rp1180
(dp1181
g14
I00
sg32
I01
sg15
I00
sg542
g0
(g325
g2
Ntp1182
Rp1183
(dp1184
g14
I00
sg32
I01
sg105
F2.5
sg15
I00
sbsg546
g0
(g325
g2
Ntp1185
Rp1186
(dp1187
g14
I00
sg32
I01
sg105
F1.479
sg15
I00
sbsg11
(lp1188
g542
ag546
asbatp1189
Rp1190
(dp1191
g14
I00
sg32
I01
sg15
I00
sg33
I1
sbsg11
(lp1192
g511
ag565
ag506
ag537
ag515
asg565
g0
(g462
g2
Ntp1193
Rp1194
(dp1195
g14
I00
sg32
I01
sg105
I01
sg15
I00
sbsbag0
(g85
g2
Ntp1196
Rp1197
(dp1198
g14
I00
sg32
I01
sg15
I00
sg506
g0
(g101
g2
Ntp1199
Rp1200
(dp1201
g14
I00
sg32
I01
sg105
g575
sg15
I00
sbsg576
g0
(g325
g2
Ntp1202
Rp1203
(dp1204
g14
I00
sg32
I01
sg105
F1.479
sg15
I00
sbsg580
g0
(g325
g2
Ntp1205
Rp1206
(dp1207
g14
I00
sg32
I01
sg105
F0.00353
sg15
I00
sbsg511
g0
(g462
g2
Ntp1208
Rp1209
(dp1210
g14
I00
sg32
I01
sg105
I00
sg15
I00
sbsg587
g0
(g325
g2
Ntp1211
Rp1212
(dp1213
g14
I00
sg32
I01
sg105
F0.00567
sg15
I00
sbsg11
(lp1214
g506
ag576
ag580
ag511
ag587
ag515
asg515
g0
(g462
g2
Ntp1215
Rp1216
(dp1217
g14
I00
sg32
I01
sg105
I00
sg15
I00
sbsbag0
(g85
g2
Ntp1218
Rp1219
(dp1220
g14
I00
sg32
I01
sg15
I00
sg506
g0
(g101
g2
Ntp1221
Rp1222
(dp1223
g14
I00
sg32
I01
sg105
g601
sg15
I00
sbsg511
g0
(g462
g2
Ntp1224
Rp1225
(dp1226
g14
I00
sg32
I01
sg105
I00
sg15
I00
sbsg605
g0
(g325
g2
Ntp1227
Rp1228
(dp1229
g14
I00
sg32
I01
sg105
F0.0499
sg15
I00
sbsg576
g0
(g325
g2
Ntp1230
Rp1231
(dp1232
g14
I00
sg32
I01
sg105
F1.479
sg15
I00
sbsg612
g0
(g325
g2
Ntp1233
Rp1234
(dp1235
g14
I00
sg32
I01
sg105
F0.0165
sg15
I00
sbsg11
(lp1236
g506
ag511
ag605
ag576
ag612
ag515
asg515
g0
(g462
g2
Ntp1237
Rp1238
(dp1239
g14
I00
sg32
I01
sg105
I00
sg15
I00
sbsbag0
(g85
g2
Ntp1240
Rp1241
(dp1242
g14
I00
sg32
I01
sg15
I00
sg506
g0
(g101
g2
Ntp1243
Rp1244
(dp1245
g14
I00
sg32
I01
sg105
g626
sg15
I00
sbsg576
g0
(g325
g2
Ntp1246
Rp1247
(dp1248
g14
I00
sg32
I01
sg105
F1.479
sg15
I00
sbsg511
g0
(g462
g2
Ntp1249
Rp1250
(dp1251
g14
I00
sg32
I01
sg105
I00
sg15
I00
sbsg633
g0
(g325
g2
Ntp1252
Rp1253
(dp1254
g14
I00
sg32
I01
sg105
F0.0104
sg15
I00
sbsg11
(lp1255
g506
ag576
ag511
ag515
ag638
ag633
asg638
g0
(g325
g2
Ntp1256
Rp1257
(dp1258
g14
I00
sg32
I01
sg105
F0.0305
sg15
I00
sbsg515
g0
(g462
g2
Ntp1259
Rp1260
(dp1261
g14
I00
sg32
I01
sg105
I00
sg15
I00
sbsbag0
(g85
g2
Ntp1262
Rp1263
(dp1264
g14
I00
sg32
I01
sg648
g0
(g325
g2
Ntp1265
Rp1266
(dp1267
g14
I00
sg32
I01
sg105
F0.201
sg15
I00
sbsg652
g0
(g325
g2
Ntp1268
Rp1269
(dp1270
g14
I00
sg32
I01
sg105
F0.026
sg15
I00
sbsg506
g0
(g101
g2
Ntp1271
Rp1272
(dp1273
g14
I00
sg32
I01
sg105
g659
sg15
I00
sbsg511
g0
(g462
g2
Ntp1274
Rp1275
(dp1276
g14
I00
sg32
I01
sg105
I01
sg15
I00
sbsg663
g0
(g325
g2
Ntp1277
Rp1278
(dp1279
g14
I00
sg32
I01
sg105
F1.12
sg15
I00
sbsg576
g0
(g325
g2
Ntp1280
Rp1281
(dp1282
g14
I00
sg32
I01
sg105
F1.479
sg15
I00
sbsg670
g0
(g325
g2
Ntp1283
Rp1284
(dp1285
g14
I00
sg32
I01
sg105
F0.5
sg15
I00
sbsg301
g0
(g68
g2
Ntp1286
Rp1287
(dp1288
g14
I00
sg32
I01
sg15
I00
sg72
g677
sg74
g77
sg76
g77
sbsg11
(lp1289
g652
ag648
ag506
ag511
ag663
ag576
ag670
ag301
ag679
ag515
ag680
asg680
g0
(g325
g2
Ntp1290
Rp1291
(dp1292
g14
I00
sg32
I01
sg105
F0.0368
sg15
I00
sbsg679
g0
(g325
g2
Ntp1293
Rp1294
(dp1295
g14
I00
sg32
I01
sg105
F0.026
sg15
I00
sbsg515
g0
(g462
g2
Ntp1296
Rp1297
(dp1298
g14
I00
sg32
I01
sg105
I00
sg15
I00
sbsg15
I00
sbag0
(g85
g2
Ntp1299
Rp1300
(dp1301
g14
I00
sg32
I01
sg15
I00
sg506
g0
(g101
g2
Ntp1302
Rp1303
(dp1304
g14
I00
sg32
I01
sg105
g696
sg15
I00
sbsg576
g0
(g325
g2
Ntp1305
Rp1306
(dp1307
g14
I00
sg32
I01
sg105
F1.479
sg15
I00
sbsg511
g0
(g462
g2
Ntp1308
Rp1309
(dp1310
g14
I00
sg32
I01
sg105
I00
sg15
I00
sbsg703
g0
(g325
g2
Ntp1311
Rp1312
(dp1313
g14
I00
sg32
I01
sg105
F0.0278
sg15
I00
sbsg707
g0
(g325
g2
Ntp1314
Rp1315
(dp1316
g14
I00
sg32
I01
sg105
F0.0158
sg15
I00
sbsg11
(lp1317
g506
ag576
ag511
ag703
ag707
ag515
asg515
g0
(g462
g2
Ntp1318
Rp1319
(dp1320
g14
I00
sg32
I01
sg105
I00
sg15
I00
sbsbag0
(g85
g2
Ntp1321
Rp1322
(dp1323
g14
I00
sg32
I01
sg15
I00
sg506
g0
(g101
g2
Ntp1324
Rp1325
(dp1326
g14
I00
sg32
I01
sg105
g721
sg15
I00
sbsg576
g0
(g325
g2
Ntp1327
Rp1328
(dp1329
g14
I00
sg32
I01
sg105
F1.479
sg15
I00
sbsg725
g0
(g325
g2
Ntp1330
Rp1331
(dp1332
g14
I00
sg32
I01
sg105
F0.094
sg15
I00
sbsg729
g0
(g325
g2
Ntp1333
Rp1334
(dp1335
g14
I00
sg32
I01
sg105
F20.0
sg15
I00
sbsg733
g0
(g325
g2
Ntp1336
Rp1337
(dp1338
g14
I00
sg32
I01
sg105
F0.094
sg15
I00
sbsg737
g0
(g325
g2
Ntp1339
Rp1340
(dp1341
g14
I00
sg32
I01
sg105
F0.0361
sg15
I00
sbsg511
g0
(g462
g2
Ntp1342
Rp1343
(dp1344
g14
I00
sg32
I01
sg105
I01
sg15
I00
sbsg301
g0
(g68
g2
Ntp1345
Rp1346
(dp1347
g14
I00
sg32
I01
sg15
I00
sg72
g677
sg74
g77
sg76
g77
sbsg11
(lp1348
g506
ag576
ag725
ag729
ag733
ag737
ag511
ag301
ag748
ag749
ag515
ag750
asg749
g0
(g462
g2
Ntp1349
Rp1350
(dp1351
g14
I00
sg32
I01
sg105
I01
sg15
I00
sbsg748
g0
(g754
g2
Ntp1352
Rp1353
(dp1354
g14
I00
sg32
I01
sg105
g758
sg15
I00
sbsg515
g0
(g462
g2
Ntp1355
Rp1356
(dp1357
g14
I00
sg32
I01
sg105
I00
sg15
I00
sbsg750
g0
(g325
g2
Ntp1358
Rp1359
(dp1360
g14
I00
sg32
I01
sg105
F0.0361
sg15
I00
sbsbag0
(g85
g2
Ntp1361
Rp1362
(dp1363
g14
I00
sg32
I01
sg768
g0
(g68
g2
Ntp1364
Rp1365
(dp1366
g14
I00
sg32
I01
sg15
I00
sg72
g121
sg74
g77
sg76
g77
sbsg15
I00
sg506
g0
(g101
g2
Ntp1367
Rp1368
(dp1369
g14
I00
sg32
I01
sg105
g775
sg15
I00
sbsg511
g0
(g462
g2
Ntp1370
Rp1371
(dp1372
g14
I00
sg32
I01
sg105
I01
sg15
I00
sbsg515
g0
(g462
g2
Ntp1373
Rp1374
(dp1375
g14
I00
sg32
I01
sg105
I00
sg15
I00
sbsg782
g0
(g68
g2
Ntp1376
Rp1377
(dp1378
g14
I00
sg32
I01
sg15
I00
sg72
g126
sg74
g77
sg76
g77
sbsg786
g0
(g68
g2
Ntp1379
Rp1380
(dp1381
g14
I00
sg32
I01
sg15
I00
sg72
S'reducedEgamma'
p1382
sg74
g77
sg76
S'reducedConversions'
p1383
sbsg11
(lp1384
g768
ag506
ag511
ag515
ag786
ag782
asbag0
(g85
g2
Ntp1385
Rp1386
(dp1387
g14
I00
sg32
I01
sg15
I00
sg506
g0
(g101
g2
Ntp1388
Rp1389
(dp1390
g14
I00
sg32
I01
sg105
g799
sg15
I00
sbsg576
g0
(g325
g2
Ntp1391
Rp1392
(dp1393
g14
I00
sg32
I01
sg105
F1.479
sg15
I00
sbsg511
g0
(g462
g2
Ntp1394
Rp1395
(dp1396
g14
I00
sg32
I01
sg105
I00
sg15
I00
sbsg11
(lp1397
g506
ag576
ag511
ag807
ag808
ag515
asg807
g0
(g809
g2
Ntp1398
Rp1399
(dp1400
g14
I00
sg32
I01
sg105
I1
sg15
I00
sbsg808
g0
(g809
g2
Ntp1401
Rp1402
(dp1403
g14
I00
sg32
I01
sg105
I1
sg15
I00
sbsg515
g0
(g462
g2
Ntp1404
Rp1405
(dp1406
g14
I00
sg32
I01
sg105
I00
sg15
I00
sbsbatp1407
Rp1408
(dp1409
g14
I00
sg32
I01
sg15
I00
sg33
I1
sbsg822
g0
(g462
g2
Ntp1410
Rp1411
(dp1412
g14
I00
sg32
I00
sg105
I01
sg15
I00
sbsg11
(lp1413
g496
ag501
ag822
asbsg15
I00
sg827
g0
(g101
g2
Ntp1414
Rp1415
(dp1416
g14
I00
sg32
I01
sg105
S'4acb2d2796efde7fba75380ce8823fc2'
p1417
sg15
I00
sbsg822
g0
(g462
g2
Ntp1418
Rp1419
(dp1420
g14
I00
sg32
I00
sg105
I01
sg15
I00
sbsg11
(lp1421
g492
ag827
ag822
asbag0
(g85
g2
Ntp1422
Rp1423
(dp1424
g14
I00
sg32
I01
sg492
g0
(g85
g2
Ntp1425
Rp1426
(dp1427
g14
I00
sg32
I01
sg15
I01
sg496
g0
(g101
g2
Ntp1428
Rp1429
(dp1430
g14
I00
sg32
I01
sg105
S'cutBasedElectronID-Fall17-94X-V1-veto'
p1431
sg15
I00
sbsg501
g0
(g83
g20
(lp1432
g0
(g85
g2
Ntp1433
Rp1434
(dp1435
g14
I00
sg32
I01
sg15
I00
sg506
g0
(g101
g2
Ntp1436
Rp1437
(dp1438
g14
I00
sg32
I01
sg105
g510
sg15
I00
sbsg511
g0
(g462
g2
Ntp1439
Rp1440
(dp1441
g14
I00
sg32
I01
sg105
I00
sg15
I00
sbsg515
g0
(g462
g2
Ntp1442
Rp1443
(dp1444
g14
I00
sg32
I01
sg105
I00
sg15
I00
sbsg11
(lp1445
g511
ag520
ag506
ag515
asg520
g0
(g325
g2
Ntp1446
Rp1447
(dp1448
g14
I00
sg32
I01
sg105
F5.0
sg15
I00
sbsbag0
(g85
g2
Ntp1449
Rp1450
(dp1451
g14
I00
sg32
I01
sg15
I00
sg506
g0
(g101
g2
Ntp1452
Rp1453
(dp1454
g14
I00
sg32
I01
sg105
g530
sg15
I00
sbsg511
g0
(g462
g2
Ntp1455
Rp1456
(dp1457
g14
I00
sg32
I01
sg105
I00
sg15
I00
sbsg515
g0
(g462
g2
Ntp1458
Rp1459
(dp1460
g14
I00
sg32
I01
sg105
I00
sg15
I00
sbsg537
g0
(g83
g20
(lp1461
g0
(g85
g2
Ntp1462
Rp1463
(dp1464
g14
I00
sg32
I01
sg15
I00
sg542
g0
(g325
g2
Ntp1465
Rp1466
(dp1467
g14
I00
sg32
I01
sg105
F1.479
sg15
I00
sbsg546
g0
(g325
g2
Ntp1468
Rp1469
(dp1470
g14
I00
sg32
I01
sg105
F0.0
sg15
I00
sbsg11
(lp1471
g542
ag546
asbag0
(g85
g2
Ntp1472
Rp1473
(dp1474
g14
I00
sg32
I01
sg15
I00
sg542
g0
(g325
g2
Ntp1475
Rp1476
(dp1477
g14
I00
sg32
I01
sg105
F2.5
sg15
I00
sbsg546
g0
(g325
g2
Ntp1478
Rp1479
(dp1480
g14
I00
sg32
I01
sg105
F1.479
sg15
I00
sbsg11
(lp1481
g542
ag546
asbatp1482
Rp1483
(dp1484
g14
I00
sg32
I01
sg15
I00
sg33
I1
sbsg11
(lp1485
g511
ag565
ag506
ag537
ag515
asg565
g0
(g462
g2
Ntp1486
Rp1487
(dp1488
g14
I00
sg32
I01
sg105
I01
sg15
I00
sbsbag0
(g85
g2
Ntp1489
Rp1490
(dp1491
g14
I00
sg32
I01
sg15
I00
sg506
g0
(g101
g2
Ntp1492
Rp1493
(dp1494
g14
I00
sg32
I01
sg105
g575
sg15
I00
sbsg576
g0
(g325
g2
Ntp1495
Rp1496
(dp1497
g14
I00
sg32
I01
sg105
F1.479
sg15
I00
sbsg580
g0
(g325
g2
Ntp1498
Rp1499
(dp1500
g14
I00
sg32
I01
sg105
F0.00523
sg15
I00
sbsg511
g0
(g462
g2
Ntp1501
Rp1502
(dp1503
g14
I00
sg32
I01
sg105
I00
sg15
I00
sbsg587
g0
(g325
g2
Ntp1504
Rp1505
(dp1506
g14
I00
sg32
I01
sg105
F0.00984
sg15
I00
sbsg11
(lp1507
g506
ag576
ag580
ag511
ag587
ag515
asg515
g0
(g462
g2
Ntp1508
Rp1509
(dp1510
g14
I00
sg32
I01
sg105
I00
sg15
I00
sbsbag0
(g85
g2
Ntp1511
Rp1512
(dp1513
g14
I00
sg32
I01
sg15
I00
sg506
g0
(g101
g2
Ntp1514
Rp1515
(dp1516
g14
I00
sg32
I01
sg105
g601
sg15
I00
sbsg511
g0
(g462
g2
Ntp1517
Rp1518
(dp1519
g14
I00
sg32
I01
sg105
I00
sg15
I00
sbsg605
g0
(g325
g2
Ntp1520
Rp1521
(dp1522
g14
I00
sg32
I01
sg105
F0.159
sg15
I00
sbsg576
g0
(g325
g2
Ntp1523
Rp1524
(dp1525
g14
I00
sg32
I01
sg105
F1.479
sg15
I00
sbsg612
g0
(g325
g2
Ntp1526
Rp1527
(dp1528
g14
I00
sg32
I01
sg105
F0.157
sg15
I00
sbsg11
(lp1529
g506
ag511
ag605
ag576
ag612
ag515
asg515
g0
(g462
g2
Ntp1530
Rp1531
(dp1532
g14
I00
sg32
I01
sg105
I00
sg15
I00
sbsbag0
(g85
g2
Ntp1533
Rp1534
(dp1535
g14
I00
sg32
I01
sg15
I00
sg506
g0
(g101
g2
Ntp1536
Rp1537
(dp1538
g14
I00
sg32
I01
sg105
g626
sg15
I00
sbsg576
g0
(g325
g2
Ntp1539
Rp1540
(dp1541
g14
I00
sg32
I01
sg105
F1.479
sg15
I00
sbsg511
g0
(g462
g2
Ntp1542
Rp1543
(dp1544
g14
I00
sg32
I01
sg105
I00
sg15
I00
sbsg633
g0
(g325
g2
Ntp1545
Rp1546
(dp1547
g14
I00
sg32
I01
sg105
F0.0128
sg15
I00
sbsg11
(lp1548
g506
ag576
ag511
ag515
ag638
ag633
asg638
g0
(g325
g2
Ntp1549
Rp1550
(dp1551
g14
I00
sg32
I01
sg105
F0.0445
sg15
I00
sbsg515
g0
(g462
g2
Ntp1552
Rp1553
(dp1554
g14
I00
sg32
I01
sg105
I00
sg15
I00
sbsbag0
(g85
g2
Ntp1555
Rp1556
(dp1557
g14
I00
sg32
I01
sg648
g0
(g325
g2
Ntp1558
Rp1559
(dp1560
g14
I00
sg32
I01
sg105
F0.201
sg15
I00
sbsg652
g0
(g325
g2
Ntp1561
Rp1562
(dp1563
g14
I00
sg32
I01
sg105
F0.05
sg15
I00
sbsg506
g0
(g101
g2
Ntp1564
Rp1565
(dp1566
g14
I00
sg32
I01
sg105
g659
sg15
I00
sbsg511
g0
(g462
g2
Ntp1567
Rp1568
(dp1569
g14
I00
sg32
I01
sg105
I01
sg15
I00
sbsg663
g0
(g325
g2
Ntp1570
Rp1571
(dp1572
g14
I00
sg32
I01
sg105
F1.12
sg15
I00
sbsg576
g0
(g325
g2
Ntp1573
Rp1574
(dp1575
g14
I00
sg32
I01
sg105
F1.479
sg15
I00
sbsg670
g0
(g325
g2
Ntp1576
Rp1577
(dp1578
g14
I00
sg32
I01
sg105
F0.5
sg15
I00
sbsg301
g0
(g68
g2
Ntp1579
Rp1580
(dp1581
g14
I00
sg32
I01
sg15
I00
sg72
g677
sg74
g77
sg76
g77
sbsg11
(lp1582
g652
ag648
ag506
ag511
ag663
ag576
ag670
ag301
ag679
ag515
ag680
asg680
g0
(g325
g2
Ntp1583
Rp1584
(dp1585
g14
I00
sg32
I01
sg105
F0.0368
sg15
I00
sbsg679
g0
(g325
g2
Ntp1586
Rp1587
(dp1588
g14
I00
sg32
I01
sg105
F0.05
sg15
I00
sbsg515
g0
(g462
g2
Ntp1589
Rp1590
(dp1591
g14
I00
sg32
I01
sg105
I00
sg15
I00
sbsg15
I00
sbag0
(g85
g2
Ntp1592
Rp1593
(dp1594
g14
I00
sg32
I01
sg15
I00
sg506
g0
(g101
g2
Ntp1595
Rp1596
(dp1597
g14
I00
sg32
I01
sg105
g696
sg15
I00
sbsg576
g0
(g325
g2
Ntp1598
Rp1599
(dp1600
g14
I00
sg32
I01
sg105
F1.479
sg15
I00
sbsg511
g0
(g462
g2
Ntp1601
Rp1602
(dp1603
g14
I00
sg32
I01
sg105
I00
sg15
I00
sbsg703
g0
(g325
g2
Ntp1604
Rp1605
(dp1606
g14
I00
sg32
I01
sg105
F0.193
sg15
I00
sbsg707
g0
(g325
g2
Ntp1607
Rp1608
(dp1609
g14
I00
sg32
I01
sg105
F0.0962
sg15
I00
sbsg11
(lp1610
g506
ag576
ag511
ag703
ag707
ag515
asg515
g0
(g462
g2
Ntp1611
Rp1612
(dp1613
g14
I00
sg32
I01
sg105
I00
sg15
I00
sbsbag0
(g85
g2
Ntp1614
Rp1615
(dp1616
g14
I00
sg32
I01
sg15
I00
sg506
g0
(g101
g2
Ntp1617
Rp1618
(dp1619
g14
I00
sg32
I01
sg105
g721
sg15
I00
sbsg576
g0
(g325
g2
Ntp1620
Rp1621
(dp1622
g14
I00
sg32
I01
sg105
F1.479
sg15
I00
sbsg725
g0
(g325
g2
Ntp1623
Rp1624
(dp1625
g14
I00
sg32
I01
sg105
F0.185
sg15
I00
sbsg729
g0
(g325
g2
Ntp1626
Rp1627
(dp1628
g14
I00
sg32
I01
sg105
F20.0
sg15
I00
sbsg733
g0
(g325
g2
Ntp1629
Rp1630
(dp1631
g14
I00
sg32
I01
sg105
F0.185
sg15
I00
sbsg737
g0
(g325
g2
Ntp1632
Rp1633
(dp1634
g14
I00
sg32
I01
sg105
F0.168
sg15
I00
sbsg511
g0
(g462
g2
Ntp1635
Rp1636
(dp1637
g14
I00
sg32
I01
sg105
I01
sg15
I00
sbsg301
g0
(g68
g2
Ntp1638
Rp1639
(dp1640
g14
I00
sg32
I01
sg15
I00
sg72
g677
sg74
g77
sg76
g77
sbsg11
(lp1641
g506
ag576
ag725
ag729
ag733
ag737
ag511
ag301
ag748
ag749
ag515
ag750
asg749
g0
(g462
g2
Ntp1642
Rp1643
(dp1644
g14
I00
sg32
I01
sg105
I01
sg15
I00
sbsg748
g0
(g754
g2
Ntp1645
Rp1646
(dp1647
g14
I00
sg32
I01
sg105
g758
sg15
I00
sbsg515
g0
(g462
g2
Ntp1648
Rp1649
(dp1650
g14
I00
sg32
I01
sg105
I00
sg15
I00
sbsg750
g0
(g325
g2
Ntp1651
Rp1652
(dp1653
g14
I00
sg32
I01
sg105
F0.168
sg15
I00
sbsbag0
(g85
g2
Ntp1654
Rp1655
(dp1656
g14
I00
sg32
I01
sg768
g0
(g68
g2
Ntp1657
Rp1658
(dp1659
g14
I00
sg32
I01
sg15
I00
sg72
g121
sg74
g77
sg76
g77
sbsg15
I00
sg506
g0
(g101
g2
Ntp1660
Rp1661
(dp1662
g14
I00
sg32
I01
sg105
g775
sg15
I00
sbsg511
g0
(g462
g2
Ntp1663
Rp1664
(dp1665
g14
I00
sg32
I01
sg105
I01
sg15
I00
sbsg515
g0
(g462
g2
Ntp1666
Rp1667
(dp1668
g14
I00
sg32
I01
sg105
I00
sg15
I00
sbsg782
g0
(g68
g2
Ntp1669
Rp1670
(dp1671
g14
I00
sg32
I01
sg15
I00
sg72
g126
sg74
g77
sg76
g77
sbsg786
g0
(g68
g2
Ntp1672
Rp1673
(dp1674
g14
I00
sg32
I01
sg15
I00
sg72
S'reducedEgamma'
p1675
sg74
g77
sg76
S'reducedConversions'
p1676
sbsg11
(lp1677
g768
ag506
ag511
ag515
ag786
ag782
asbag0
(g85
g2
Ntp1678
Rp1679
(dp1680
g14
I00
sg32
I01
sg15
I00
sg506
g0
(g101
g2
Ntp1681
Rp1682
(dp1683
g14
I00
sg32
I01
sg105
g799
sg15
I00
sbsg576
g0
(g325
g2
Ntp1684
Rp1685
(dp1686
g14
I00
sg32
I01
sg105
F1.479
sg15
I00
sbsg511
g0
(g462
g2
Ntp1687
Rp1688
(dp1689
g14
I00
sg32
I01
sg105
I00
sg15
I00
sbsg11
(lp1690
g506
ag576
ag511
ag807
ag808
ag515
asg807
g0
(g809
g2
Ntp1691
Rp1692
(dp1693
g14
I00
sg32
I01
sg105
I3
sg15
I00
sbsg808
g0
(g809
g2
Ntp1694
Rp1695
(dp1696
g14
I00
sg32
I01
sg105
I2
sg15
I00
sbsg515
g0
(g462
g2
Ntp1697
Rp1698
(dp1699
g14
I00
sg32
I01
sg105
I00
sg15
I00
sbsbatp1700
Rp1701
(dp1702
g14
I00
sg32
I01
sg15
I00
sg33
I1
sbsg822
g0
(g462
g2
Ntp1703
Rp1704
(dp1705
g14
I00
sg32
I00
sg105
I01
sg15
I00
sbsg11
(lp1706
g496
ag501
ag822
asbsg15
I00
sg827
g0
(g101
g2
Ntp1707
Rp1708
(dp1709
g14
I00
sg32
I01
sg105
S'43be9b381a8d9b0910b7f81a5ad8ff3a'
p1710
sg15
I00
sbsg822
g0
(g462
g2
Ntp1711
Rp1712
(dp1713
g14
I00
sg32
I00
sg105
I01
sg15
I00
sbsg11
(lp1714
g492
ag827
ag822
asbag0
(g85
g2
Ntp1715
Rp1716
(dp1717
g14
I00
sg32
I01
sg492
g0
(g85
g2
Ntp1718
Rp1719
(dp1720
g14
I00
sg32
I01
sg15
I01
sg496
g0
(g101
g2
Ntp1721
Rp1722
(dp1723
g14
I00
sg32
I01
sg105
S'heepElectronID-HEEPV60'
p1724
sg15
I00
sbsg501
g0
(g83
g20
(lp1725
g0
(g85
g2
Ntp1726
Rp1727
(dp1728
g14
I00
sg32
I01
sg15
I00
sg506
g0
(g101
g2
Ntp1729
Rp1730
(dp1731
g14
I00
sg32
I01
sg105
g510
sg15
I00
sbsg511
g0
(g462
g2
Ntp1732
Rp1733
(dp1734
g14
I00
sg32
I01
sg105
I00
sg15
I00
sbsg515
g0
(g462
g2
Ntp1735
Rp1736
(dp1737
g14
I00
sg32
I01
sg105
I00
sg15
I00
sbsg11
(lp1738
g511
ag520
ag506
ag515
asg520
g0
(g325
g2
Ntp1739
Rp1740
(dp1741
g14
I00
sg32
I01
sg105
F35.0
sg15
I00
sbsbag0
(g85
g2
Ntp1742
Rp1743
(dp1744
g14
I00
sg32
I01
sg15
I00
sg506
g0
(g101
g2
Ntp1745
Rp1746
(dp1747
g14
I00
sg32
I01
sg105
g530
sg15
I00
sbsg511
g0
(g462
g2
Ntp1748
Rp1749
(dp1750
g14
I00
sg32
I01
sg105
I00
sg15
I00
sbsg515
g0
(g462
g2
Ntp1751
Rp1752
(dp1753
g14
I00
sg32
I01
sg105
I00
sg15
I00
sbsg537
g0
(g83
g20
(lp1754
g0
(g85
g2
Ntp1755
Rp1756
(dp1757
g14
I00
sg32
I01
sg15
I00
sg542
g0
(g325
g2
Ntp1758
Rp1759
(dp1760
g14
I00
sg32
I01
sg105
F1.4442
sg15
I00
sbsg546
g0
(g325
g2
Ntp1761
Rp1762
(dp1763
g14
I00
sg32
I01
sg105
F0.0
sg15
I00
sbsg11
(lp1764
g542
ag546
asbag0
(g85
g2
Ntp1765
Rp1766
(dp1767
g14
I00
sg32
I01
sg15
I00
sg542
g0
(g325
g2
Ntp1768
Rp1769
(dp1770
g14
I00
sg32
I01
sg105
F2.5
sg15
I00
sbsg546
g0
(g325
g2
Ntp1771
Rp1772
(dp1773
g14
I00
sg32
I01
sg105
F1.566
sg15
I00
sbsg11
(lp1774
g542
ag546
asbatp1775
Rp1776
(dp1777
g14
I00
sg32
I01
sg15
I00
sg33
I1
sbsg11
(lp1778
g511
ag565
ag506
ag537
ag515
asg565
g0
(g462
g2
Ntp1779
Rp1780
(dp1781
g14
I00
sg32
I01
sg105
I01
sg15
I00
sbsbag0
(g85
g2
Ntp1782
Rp1783
(dp1784
g14
I00
sg32
I01
sg15
I00
sg506
g0
(g101
g2
Ntp1785
Rp1786
(dp1787
g14
I00
sg32
I01
sg105
g575
sg15
I00
sbsg576
g0
(g325
g2
Ntp1788
Rp1789
(dp1790
g14
I00
sg32
I01
sg105
F1.479
sg15
I00
sbsg580
g0
(g325
g2
Ntp1791
Rp1792
(dp1793
g14
I00
sg32
I01
sg105
F0.004
sg15
I00
sbsg511
g0
(g462
g2
Ntp1794
Rp1795
(dp1796
g14
I00
sg32
I01
sg105
I00
sg15
I00
sbsg587
g0
(g325
g2
Ntp1797
Rp1798
(dp1799
g14
I00
sg32
I01
sg105
F0.006
sg15
I00
sbsg11
(lp1800
g506
ag576
ag580
ag511
ag587
ag515
asg515
g0
(g462
g2
Ntp1801
Rp1802
(dp1803
g14
I00
sg32
I01
sg105
I00
sg15
I00
sbsbag0
(g85
g2
Ntp1804
Rp1805
(dp1806
g14
I00
sg32
I01
sg15
I00
sg506
g0
(g101
g2
Ntp1807
Rp1808
(dp1809
g14
I00
sg32
I01
sg105
g601
sg15
I00
sbsg511
g0
(g462
g2
Ntp1810
Rp1811
(dp1812
g14
I00
sg32
I01
sg105
I00
sg15
I00
sbsg605
g0
(g325
g2
Ntp1813
Rp1814
(dp1815
g14
I00
sg32
I01
sg105
F0.06
sg15
I00
sbsg576
g0
(g325
g2
Ntp1816
Rp1817
(dp1818
g14
I00
sg32
I01
sg105
F1.479
sg15
I00
sbsg612
g0
(g325
g2
Ntp1819
Rp1820
(dp1821
g14
I00
sg32
I01
sg105
F0.06
sg15
I00
sbsg11
(lp1822
g506
ag511
ag605
ag576
ag612
ag515
asg515
g0
(g462
g2
Ntp1823
Rp1824
(dp1825
g14
I00
sg32
I01
sg105
I00
sg15
I00
sbsbag0
(g85
g2
Ntp1826
Rp1827
(dp1828
g14
I00
sg32
I01
sg15
I00
sg506
g0
(g101
g2
Ntp1829
Rp1830
(dp1831
g14
I00
sg32
I01
sg105
g626
sg15
I00
sbsg576
g0
(g325
g2
Ntp1832
Rp1833
(dp1834
g14
I00
sg32
I01
sg105
F1.479
sg15
I00
sbsg511
g0
(g462
g2
Ntp1835
Rp1836
(dp1837
g14
I00
sg32
I01
sg105
I00
sg15
I00
sbsg633
g0
(g325
g2
Ntp1838
Rp1839
(dp1840
g14
I00
sg32
I01
sg105
I9999
sg15
I00
sbsg11
(lp1841
g506
ag576
ag511
ag515
ag638
ag633
asg638
g0
(g325
g2
Ntp1842
Rp1843
(dp1844
g14
I00
sg32
I01
sg105
F0.03
sg15
I00
sbsg515
g0
(g462
g2
Ntp1845
Rp1846
(dp1847
g14
I00
sg32
I01
sg105
I00
sg15
I00
sbsbag0
(g85
g2
Ntp1848
Rp1849
(dp1850
g14
I00
sg32
I01
sg15
I00
sg506
g0
(g101
g2
Ntp1851
Rp1852
(dp1853
g14
I00
sg32
I01
sg105
S'GsfEleFull5x5E2x5OverE5x5Cut'
p1854
sg15
I00
sbsg511
g0
(g462
g2
Ntp1855
Rp1856
(dp1857
g14
I00
sg32
I01
sg105
I00
sg15
I00
sbsg515
g0
(g462
g2
Ntp1858
Rp1859
(dp1860
g14
I00
sg32
I01
sg105
I00
sg15
I00
sbsS'minE2x5OverE5x5EB'
p1861
g0
(g325
g2
Ntp1862
Rp1863
(dp1864
g14
I00
sg32
I01
sg105
F0.94
sg15
I00
sbsS'minE2x5OverE5x5EE'
p1865
g0
(g325
g2
Ntp1866
Rp1867
(dp1868
g14
I00
sg32
I01
sg105
F-1.0
sg15
I00
sbsg11
(lp1869
g506
ag511
ag515
ag1861
ag1865
aS'minE1x5OverE5x5EE'
p1870
aS'minE1x5OverE5x5EB'
p1871
asg1870
g0
(g325
g2
Ntp1872
Rp1873
(dp1874
g14
I00
sg32
I01
sg105
F-1.0
sg15
I00
sbsg1871
g0
(g325
g2
Ntp1875
Rp1876
(dp1877
g14
I00
sg32
I01
sg105
F0.83
sg15
I00
sbsbag0
(g85
g2
Ntp1878
Rp1879
(dp1880
g14
I00
sg32
I01
sg15
I00
sg506
g0
(g101
g2
Ntp1881
Rp1882
(dp1883
g14
I00
sg32
I01
sg105
S'GsfEleHadronicOverEMLinearCut'
p1884
sg15
I00
sbsg511
g0
(g462
g2
Ntp1885
Rp1886
(dp1887
g14
I00
sg32
I01
sg105
I00
sg15
I00
sbsg515
g0
(g462
g2
Ntp1888
Rp1889
(dp1890
g14
I00
sg32
I01
sg105
I00
sg15
I00
sbsS'constTermEE'
p1891
g0
(g325
g2
Ntp1892
Rp1893
(dp1894
g14
I00
sg32
I01
sg105
I5
sg15
I00
sbsS'slopeStartEE'
p1895
g0
(g325
g2
Ntp1896
Rp1897
(dp1898
g14
I00
sg32
I01
sg105
F0.0
sg15
I00
sbsS'constTermEB'
p1899
g0
(g325
g2
Ntp1900
Rp1901
(dp1902
g14
I00
sg32
I01
sg105
F1.0
sg15
I00
sbsS'slopeStartEB'
p1903
g0
(g325
g2
Ntp1904
Rp1905
(dp1906
g14
I00
sg32
I01
sg105
F0.0
sg15
I00
sbsg11
(lp1907
g506
ag511
ag515
ag1891
ag1899
aS'slopeTermEB'
p1908
ag1895
aS'slopeTermEE'
p1909
ag1903
asg1908
g0
(g325
g2
Ntp1910
Rp1911
(dp1912
g14
I00
sg32
I01
sg105
F0.05
sg15
I00
sbsg1909
g0
(g325
g2
Ntp1913
Rp1914
(dp1915
g14
I00
sg32
I01
sg105
F0.05
sg15
I00
sbsbag0
(g85
g2
Ntp1916
Rp1917
(dp1918
g14
I00
sg32
I01
sg15
I00
sg506
g0
(g101
g2
Ntp1919
Rp1920
(dp1921
g14
I00
sg32
I01
sg105
S'GsfEleTrkPtIsoCut'
p1922
sg15
I00
sbsg511
g0
(g462
g2
Ntp1923
Rp1924
(dp1925
g14
I00
sg32
I01
sg105
I00
sg15
I00
sbsg515
g0
(g462
g2
Ntp1926
Rp1927
(dp1928
g14
I00
sg32
I01
sg105
I00
sg15
I00
sbsg1891
g0
(g325
g2
Ntp1929
Rp1930
(dp1931
g14
I00
sg32
I01
sg105
F5.0
sg15
I00
sbsg1895
g0
(g325
g2
Ntp1932
Rp1933
(dp1934
g14
I00
sg32
I01
sg105
F0.0
sg15
I00
sbsg1899
g0
(g325
g2
Ntp1935
Rp1936
(dp1937
g14
I00
sg32
I01
sg105
F5.0
sg15
I00
sbsg1903
g0
(g325
g2
Ntp1938
Rp1939
(dp1940
g14
I00
sg32
I01
sg105
F0.0
sg15
I00
sbsg11
(lp1941
g506
ag511
ag515
ag1891
ag1899
ag1908
ag1895
ag1909
ag1903
asg1908
g0
(g325
g2
Ntp1942
Rp1943
(dp1944
g14
I00
sg32
I01
sg105
F0.0
sg15
I00
sbsg1909
g0
(g325
g2
Ntp1945
Rp1946
(dp1947
g14
I00
sg32
I01
sg105
F0.0
sg15
I00
sbsbag0
(g85
g2
Ntp1948
Rp1949
(dp1950
g14
I00
sg32
I01
sS'rhoConstant'
p1951
g0
(g325
g2
Ntp1952
Rp1953
(dp1954
g14
I00
sg32
I01
sg105
F0.28
sg15
I00
sbsg15
I00
sg506
g0
(g101
g2
Ntp1955
Rp1956
(dp1957
g14
I00
sg32
I01
sg105
S'GsfEleEmHadD1IsoRhoCut'
p1958
sg15
I00
sbsg511
g0
(g462
g2
Ntp1959
Rp1960
(dp1961
g14
I00
sg32
I01
sg105
I01
sg15
I00
sbsg1903
g0
(g325
g2
Ntp1962
Rp1963
(dp1964
g14
I00
sg32
I01
sg105
F0.0
sg15
I00
sbsg515
g0
(g462
g2
Ntp1965
Rp1966
(dp1967
g14
I00
sg32
I01
sg105
I00
sg15
I00
sbsg1891
g0
(g325
g2
Ntp1968
Rp1969
(dp1970
g14
I00
sg32
I01
sg105
F2.5
sg15
I00
sbsg1895
g0
(g325
g2
Ntp1971
Rp1972
(dp1973
g14
I00
sg32
I01
sg105
F50.0
sg15
I00
sbsg1899
g0
(g325
g2
Ntp1974
Rp1975
(dp1976
g14
I00
sg32
I01
sg105
F2.0
sg15
I00
sbsg301
g0
(g68
g2
Ntp1977
Rp1978
(dp1979
g14
I00
sg32
I01
sg15
I00
sg72
g677
sg74
g77
sg76
g77
sbsg11
(lp1980
g1951
ag506
ag511
ag515
ag1891
ag1899
ag301
ag1908
ag1895
ag1909
ag1903
asg1908
g0
(g325
g2
Ntp1981
Rp1982
(dp1983
g14
I00
sg32
I01
sg105
F0.03
sg15
I00
sbsg1909
g0
(g325
g2
Ntp1984
Rp1985
(dp1986
g14
I00
sg32
I01
sg105
F0.03
sg15
I00
sbsbag0
(g85
g2
Ntp1987
Rp1988
(dp1989
g14
I00
sg32
I01
sg15
I00
sg506
g0
(g101
g2
Ntp1990
Rp1991
(dp1992
g14
I00
sg32
I01
sg105
S'GsfEleDxyCut'
p1993
sg15
I00
sbsg511
g0
(g462
g2
Ntp1994
Rp1995
(dp1996
g14
I00
sg32
I01
sg105
I01
sg15
I00
sbsg576
g0
(g325
g2
Ntp1997
Rp1998
(dp1999
g14
I00
sg32
I01
sg105
F1.479
sg15
I00
sbsS'dxyCutValueEB'
p2000
g0
(g325
g2
Ntp2001
Rp2002
(dp2003
g14
I00
sg32
I01
sg105
F0.02
sg15
I00
sbsS'vertexSrc'
p2004
g0
(g68
g2
Ntp2005
Rp2006
(dp2007
g14
I00
sg32
I01
sg15
I00
sg72
S'offlinePrimaryVertices'
p2008
sg74
g77
sg76
g77
sbsg11
(lp2009
g506
ag511
ag576
ag2000
ag2004
aS'dxyCutValueEE'
p2010
ag515
aS'vertexSrcMiniAOD'
p2011
asg2011
g0
(g68
g2
Ntp2012
Rp2013
(dp2014
g14
I00
sg32
I01
sg15
I00
sg72
S'offlineSlimmedPrimaryVertices'
p2015
sg74
g77
sg76
g77
sbsg515
g0
(g462
g2
Ntp2016
Rp2017
(dp2018
g14
I00
sg32
I01
sg105
I00
sg15
I00
sbsg2010
g0
(g325
g2
Ntp2019
Rp2020
(dp2021
g14
I00
sg32
I01
sg105
F0.05
sg15
I00
sbsbag0
(g85
g2
Ntp2022
Rp2023
(dp2024
g14
I00
sg32
I01
sg15
I00
sg506
g0
(g101
g2
Ntp2025
Rp2026
(dp2027
g14
I00
sg32
I01
sg105
g799
sg15
I00
sbsg576
g0
(g325
g2
Ntp2028
Rp2029
(dp2030
g14
I00
sg32
I01
sg105
F1.479
sg15
I00
sbsg511
g0
(g462
g2
Ntp2031
Rp2032
(dp2033
g14
I00
sg32
I01
sg105
I00
sg15
I00
sbsg11
(lp2034
g506
ag576
ag511
ag807
ag808
ag515
asg807
g0
(g809
g2
Ntp2035
Rp2036
(dp2037
g14
I00
sg32
I01
sg105
I1
sg15
I00
sbsg808
g0
(g809
g2
Ntp2038
Rp2039
(dp2040
g14
I00
sg32
I01
sg105
I1
sg15
I00
sbsg515
g0
(g462
g2
Ntp2041
Rp2042
(dp2043
g14
I00
sg32
I01
sg105
I00
sg15
I00
sbsbag0
(g85
g2
Ntp2044
Rp2045
(dp2046
g14
I00
sg32
I01
sg15
I00
sg506
g0
(g101
g2
Ntp2047
Rp2048
(dp2049
g14
I00
sg32
I01
sg105
S'GsfEleEcalDrivenCut'
p2050
sg15
I00
sbsg576
g0
(g325
g2
Ntp2051
Rp2052
(dp2053
g14
I00
sg32
I01
sg105
F1.479
sg15
I00
sbsg511
g0
(g462
g2
Ntp2054
Rp2055
(dp2056
g14
I00
sg32
I01
sg105
I00
sg15
I00
sbsS'ecalDrivenEB'
p2057
g0
(cFWCore.ParameterSet.Types
int32
p2058
g2
Ntp2059
Rp2060
(dp2061
g14
I00
sg32
I01
sg105
I1
sg15
I00
sbsS'ecalDrivenEE'
p2062
g0
(g2058
g2
Ntp2063
Rp2064
(dp2065
g14
I00
sg32
I01
sg105
I1
sg15
I00
sbsg11
(lp2066
g506
ag576
ag511
ag2057
ag2062
ag515
asg515
g0
(g462
g2
Ntp2067
Rp2068
(dp2069
g14
I00
sg32
I01
sg105
I00
sg15
I00
sbsbatp2070
Rp2071
(dp2072
g14
I00
sg32
I01
sg15
I00
sg33
I1
sbsg822
g0
(g462
g2
Ntp2073
Rp2074
(dp2075
g14
I00
sg32
I00
sg105
I01
sg15
I00
sbsg11
(lp2076
g496
ag501
ag822
asbsg15
I00
sg827
g0
(g101
g2
Ntp2077
Rp2078
(dp2079
g14
I00
sg32
I01
sg105
S'df10ac7e3a9c22f63fa7936573beaafb'
p2080
sg15
I00
sbsg822
g0
(g462
g2
Ntp2081
Rp2082
(dp2083
g14
I00
sg32
I00
sg105
I01
sg15
I00
sbsg11
(lp2084
g492
ag827
ag822
asbatp2085
Rp2086
(dp2087
g14
I00
sg32
I01
sg15
I00
sg33
I1
sbsg34
S'egmGsfElectronIDs'
p2088
sg35
S'VersionedGsfElectronIdProducer'
p2089
sbag423
ag425
aag424
aag423
aag477
asg427
g425
sg479
g477
ssS'end'
p2090
g424
sbsg34
S'egmGsfElectronIDTask'
p2091
sb(lp2092
g53
a(lp2093
Nag2092
ag2092
aag2093
assg2090
g2093
sbsbssS'_Process__source'
p2094
g0
(cFWCore.ParameterSet.Modules
Source
p2095
g2
Ntp2096
Rp2097
(dp2098
g11
(lp2099
S'fileNames'
p2100
asg14
I00
sg15
I00
sg16
I192
sg17
g18
sg2100
g0
(g19
g20
(lp2101
S'file:/wk_cms2/sam7k9621/CMSSW_9_4_6_patch1/src/TriggerEfficiency/DataFltr/test/test.root'
p2102
atp2103
Rp2104
(dp2105
g14
I00
sg32
I00
sg15
I00
sg33
I1
sbsg35
S'PoolSource'
p2106
sbsg421
g62
sS'XMLFromDBSource'
p2107
g0
(g7
g2
Ntp2108
Rp2109
(dp2110
g11
(lp2111
S'rootDDName'
p2112
aS'label'
p2113
asg14
I00
sg15
I00
sg16
I52
sg17
g18
sg2112
g0
(g101
g2
Ntp2114
Rp2115
(dp2116
g14
I00
sg32
I01
sg105
S'cms:OCMS'
p2117
sg15
I00
sbsg2113
g0
(g101
g2
Ntp2118
Rp2119
(dp2120
g14
I00
sg32
I01
sg105
S'Extended'
p2121
sg15
I00
sbsg34
g2107
sg35
S'XMLIdealGeometryESProducer'
p2122
sbsS'hcalDDDSimConstants'
p2123
g0
(g7
g2
Ntp2124
Rp2125
(dp2126
g11
(lp2127
S'appendToDataLabel'
p2128
asg14
I00
sg2128
g0
(g101
g2
Ntp2129
Rp2130
(dp2131
g14
I00
sg32
I01
sg105
g77
sg15
I00
sbsg15
I00
sg16
I52
sg17
g18
sg34
g2123
sg35
S'HcalDDDSimConstantsESModule'
p2132
sbsS'source'
p2133
g2097
sS'mvaEleID_Spring15_25ns_nonTrig_V1_wp90'
p2134
g0
(g85
g2
Ntp2135
Rp2136
(dp2137
g14
I00
sg32
I01
sg15
I01
sg496
g0
(g101
g2
Ntp2138
Rp2139
(dp2140
g14
I00
sg32
I01
sg105
S'mvaEleID-Spring15-25ns-nonTrig-V1-wp90'
p2141
sg15
I00
sbsg501
g0
(g83
g20
(lp2142
g0
(g85
g2
Ntp2143
Rp2144
(dp2145
g14
I00
sg32
I01
sS'mvaValueMapName'
p2146
g0
(g68
g2
Ntp2147
Rp2148
(dp2149
g14
I00
sg32
I01
sg15
I00
sg72
S'electronMVAValueMapProducer'
p2150
sg74
g77
sg76
S'ElectronMVAEstimatorRun2Spring15NonTrig25nsV1Values'
p2151
sbsS'mvaCategoriesMapName'
p2152
g0
(g68
g2
Ntp2153
Rp2154
(dp2155
g14
I00
sg32
I01
sg15
I00
sg72
S'electronMVAValueMapProducer'
p2156
sg74
g77
sg76
S'ElectronMVAEstimatorRun2Spring15NonTrig25nsV1Categories'
p2157
sbsg506
g0
(g101
g2
Ntp2158
Rp2159
(dp2160
g14
I00
sg32
I01
sg105
S'GsfEleMVACut'
p2161
sg15
I00
sbsg511
g0
(g462
g2
Ntp2162
Rp2163
(dp2164
g14
I00
sg32
I01
sg105
I01
sg15
I00
sbsS'mvaCuts'
p2165
g0
(g338
g20
(lp2166
F-0.083313
aF-0.235222
aF-0.67099
aF0.913286
aF0.805013
aF0.358969
atp2167
Rp2168
(dp2169
g14
I00
sg32
I01
sg15
I00
sbsg515
g0
(g462
g2
Ntp2170
Rp2171
(dp2172
g14
I00
sg32
I01
sg105
I00
sg15
I00
sbsg11
(lp2173
g2146
ag2152
ag506
ag511
ag2165
ag515
asg15
I00
sbatp2174
Rp2175
(dp2176
g14
I00
sg32
I01
sg15
I00
sg33
I1
sbsg822
g0
(g462
g2
Ntp2177
Rp2178
(dp2179
g14
I00
sg32
I00
sg105
I01
sg15
I00
sbsg11
(lp2180
g496
ag501
ag822
asg34
g2134
sbsS'CaloTowerGeometryFromDBEP'
p2181
g0
(g7
g2
Ntp2182
Rp2183
(dp2184
g11
(lp2185
S'applyAlignment'
p2186
asg14
I00
sg15
I00
sg16
I52
sg17
g18
sg34
g2181
sg2186
g0
(g462
g2
Ntp2187
Rp2188
(dp2189
g14
I00
sg32
I01
sg105
I00
sg15
I00
sbsg35
g2181
sbsg2091
g53
sS'_Process__InExtendCall'
p2190
I00
sS'_Process__producers'
p2191
(dp2192
g421
g62
sg2088
g479
sg471
g427
ssS'siPixelQualityESProducer'
p2193
g0
(g7
g2
Ntp2194
Rp2195
(dp2196
g11
(lp2197
S'ListOfRecordToMerge'
p2198
asg14
I00
sg15
I01
sg16
I52
sg17
g18
sg2198
g0
(g83
g20
(lp2199
g0
(g85
g2
Ntp2200
Rp2201
(dp2202
g14
I00
sg32
I01
sg15
I00
sS'record'
p2203
g0
(g101
g2
Ntp2204
Rp2205
(dp2206
g14
I00
sg32
I01
sg105
S'SiPixelQualityFromDbRcd'
p2207
sg15
I00
sbsS'tag'
p2208
g0
(g101
g2
Ntp2209
Rp2210
(dp2211
g14
I00
sg32
I01
sg105
g77
sg15
I00
sbsg11
(lp2212
g2203
ag2208
asbag0
(g85
g2
Ntp2213
Rp2214
(dp2215
g14
I00
sg32
I01
sg15
I00
sg2203
g0
(g101
g2
Ntp2216
Rp2217
(dp2218
g14
I00
sg32
I01
sg105
S'SiPixelDetVOffRcd'
p2219
sg15
I00
sbsg2208
g0
(g101
g2
Ntp2220
Rp2221
(dp2222
g14
I00
sg32
I01
sg105
g77
sg15
I00
sbsg11
(lp2223
g2203
ag2208
asbatp2224
Rp2225
(dp2226
g14
I00
sg32
I01
sg15
I00
sg33
I1
sbsg34
g2193
sg35
S'SiPixelQualityESProducer'
p2227
sbsS'GlobalTag'
p2228
g0
(cFWCore.ParameterSet.Modules
ESSource
p2229
g2
Ntp2230
Rp2231
(dp2232
g11
(lp2233
S'DBParameters'
p2234
aS'connect'
p2235
aS'globaltag'
p2236
aS'RefreshEachRun'
p2237
aS'pfnPrefix'
p2238
aS'snapshotTime'
p2239
aS'toGet'
p2240
aS'pfnPostfix'
p2241
aS'RefreshAlways'
p2242
aS'ReconnectEachRun'
p2243
aS'RefreshOpenIOVs'
p2244
aS'DumpStat'
p2245
asg14
I00
sg17
S'/cvmfs/cms.cern.ch/slc6_amd64_gcc630/cms/cmssw-patch/CMSSW_9_4_6_patch1/python/CondCore/ESSources/CondDBESSource_cfi.py'
p2246
sg15
I01
sg2236
g0
(g101
g2
Ntp2247
Rp2248
(dp2249
g14
I00
sg32
I01
sg105
S'94X_mc2017_realistic_v10'
p2250
sg15
I00
sbsg2237
g0
(g462
g2
Ntp2251
Rp2252
(dp2253
g14
I00
sg32
I00
sg105
I00
sg15
I00
sbsg2238
g0
(g101
g2
Ntp2254
Rp2255
(dp2256
g14
I00
sg32
I00
sg105
g77
sg15
I00
sbsg2239
g0
(g101
g2
Ntp2257
Rp2258
(dp2259
g14
I00
sg32
I01
sg105
g77
sg15
I00
sbsg2240
g0
(g83
g20
(lp2260
tp2261
Rp2262
(dp2263
g14
I00
sg32
I01
sg15
I00
sg33
I1
sbsg2241
g0
(g101
g2
Ntp2264
Rp2265
(dp2266
g14
I00
sg32
I00
sg105
g77
sg15
I00
sbsg2234
g0
(g85
g2
Ntp2267
Rp2268
(dp2269
g14
I00
sg32
I01
sS'authenticationPath'
p2270
g0
(g101
g2
Ntp2271
Rp2272
(dp2273
g14
I00
sg32
I00
sg105
g77
sg15
I00
sbsg15
I00
sS'messageLevel'
p2274
g0
(g2058
g2
Ntp2275
Rp2276
(dp2277
g14
I00
sg32
I00
sg105
I0
sg15
I00
sbsg11
(lp2278
g2274
aS'security'
p2279
aS'authenticationSystem'
p2280
ag2270
asg2279
g0
(g101
g2
Ntp2281
Rp2282
(dp2283
g14
I00
sg32
I00
sg105
g77
sg15
I00
sbsg2280
g0
(g2058
g2
Ntp2284
Rp2285
(dp2286
g14
I00
sg32
I00
sg105
I0
sg15
I00
sbsbsg2242
g0
(g462
g2
Ntp2287
Rp2288
(dp2289
g14
I00
sg32
I00
sg105
I00
sg15
I00
sbsg16
I19
sg2235
g0
(g101
g2
Ntp2290
Rp2291
(dp2292
g14
I00
sg32
I01
sg105
S'frontier://FrontierProd/CMS_CONDITIONS'
p2293
sg15
I00
sbsg2243
g0
(g462
g2
Ntp2294
Rp2295
(dp2296
g14
I00
sg32
I00
sg105
I00
sg15
I00
sbsg34
g2228
sg2244
g0
(g462
g2
Ntp2297
Rp2298
(dp2299
g14
I00
sg32
I00
sg105
I00
sg15
I00
sbsg2245
g0
(g462
g2
Ntp2300
Rp2301
(dp2302
g14
I00
sg32
I00
sg105
I00
sg15
I00
sbsg35
S'PoolDBESSource'
p2303
sbsS'mvaEleID_Spring15_50ns_Trig_V1_wp90'
p2304
g0
(g85
g2
Ntp2305
Rp2306
(dp2307
g14
I00
sg32
I01
sg15
I01
sg496
g0
(g101
g2
Ntp2308
Rp2309
(dp2310
g14
I00
sg32
I01
sg105
S'mvaEleID-Spring15-50ns-Trig-V1-wp90'
p2311
sg15
I00
sbsg501
g0
(g83
g20
(lp2312
g0
(g85
g2
Ntp2313
Rp2314
(dp2315
g14
I00
sg32
I01
sg2146
g0
(g68
g2
Ntp2316
Rp2317
(dp2318
g14
I00
sg32
I01
sg15
I00
sg72
S'electronMVAValueMapProducer'
p2319
sg74
g77
sg76
S'ElectronMVAEstimatorRun2Spring15Trig50nsV1Values'
p2320
sbsg2152
g0
(g68
g2
Ntp2321
Rp2322
(dp2323
g14
I00
sg32
I01
sg15
I00
sg72
S'electronMVAValueMapProducer'
p2324
sg74
g77
sg76
S'ElectronMVAEstimatorRun2Spring15Trig50nsV1Categories'
p2325
sbsg506
g0
(g101
g2
Ntp2326
Rp2327
(dp2328
g14
I00
sg32
I01
sg105
g2161
sg15
I00
sbsg511
g0
(g462
g2
Ntp2329
Rp2330
(dp2331
g14
I00
sg32
I01
sg105
I01
sg15
I00
sbsg2165
g0
(g338
g20
(lp2332
F0.953843
aF0.849994
aF0.514118
atp2333
Rp2334
(dp2335
g14
I00
sg32
I01
sg15
I00
sbsg515
g0
(g462
g2
Ntp2336
Rp2337
(dp2338
g14
I00
sg32
I01
sg105
I00
sg15
I00
sbsg11
(lp2339
g2146
ag2152
ag506
ag511
ag2165
ag515
asg15
I00
sbatp2340
Rp2341
(dp2342
g14
I00
sg32
I01
sg15
I00
sg33
I1
sbsg822
g0
(g462
g2
Ntp2343
Rp2344
(dp2345
g14
I00
sg32
I00
sg105
I01
sg15
I00
sbsg11
(lp2346
g496
ag501
ag822
asg34
g2304
sbsS'_Process__endpaths'
p2347
g0
(cFWCore.ParameterSet.DictTypes
SortedKeysDict
p2348
c__builtin__
dict
p2349
(dp2350
S'endPath'
p2351
g0
(cFWCore.ParameterSet.SequenceTypes
EndPath
p2352
g2
Ntp2353
Rp2354
(dp2355
g14
I00
sg43
g0
(cFWCore.ParameterSet.SequenceTypes
_SequenceCollection
p2356
g2
Ntp2357
Rp2358
(dp2359
g55
(lp2360
g0
(cFWCore.ParameterSet.Modules
OutputModule
p2361
g2
Ntp2362
Rp2363
(dp2364
g11
(lp2365
S'fileName'
p2366
aS'SelectEvents'
p2367
aS'outputCommands'
p2368
asg14
I00
sg15
I00
sg2368
g0
(g19
g20
(lp2369
S'keep *'
p2370
aS'drop *_slimmedPhotons_*_*'
p2371
aS'drop *_slimmedJets*_*_*'
p2372
aS'drop *_slimmedTaus_*_*'
p2373
atp2374
Rp2375
(dp2376
g14
I00
sg32
I00
sg15
I00
sg33
I1
sbsg17
S'/wk_cms2/sam7k9621/CMSSW_9_4_6_patch1/src/TriggerEfficiency/DataFltr/production/DataFltr_cfg.py'
p2377
sg2367
g0
(g85
g2
Ntp2378
Rp2379
(dp2380
g14
I00
sg32
I00
sg2367
g0
(g19
g20
(lp2381
S'filterpath'
p2382
atp2383
Rp2384
(dp2385
g14
I00
sg32
I01
sg15
I00
sg33
I1
sbsg15
I00
sg11
(lp2386
g2367
asbsg16
I133
sg34
S'edmOut'
p2387
sg2366
g0
(g101
g2
Ntp2388
Rp2389
(dp2390
g14
I00
sg32
I00
sg105
S'TnP_test_electron.root'
p2391
sg15
I00
sbsg35
S'PoolOutputModule'
p2392
sbasbsg34
g2351
sg15
I00
sg44
g0
(g45
g2
Ntp2393
Rp2394
(dp2395
g49
(dp2396
sg2090
(lp2397
Nag2397
ag2397
asbsbstp2398
Rp2399
(dp2400
S'list'
p2401
(lp2402
g2351
asbsS'MuonDetLayerGeometryESProducer'
p2403
g0
(g7
g2
Ntp2404
Rp2405
(dp2406
g11
(lp2407
sg14
I00
sg15
I00
sg16
I52
sg17
g18
sg34
g2403
sg35
g2403
sbsS'EcalEndcapGeometryFromDBEP'
p2408
g0
(g7
g2
Ntp2409
Rp2410
(dp2411
g11
(lp2412
g2186
asg14
I00
sg15
I01
sg16
I52
sg17
g18
sg34
g2408
sg2186
g0
(g462
g2
Ntp2413
Rp2414
(dp2415
g14
I00
sg32
I01
sg105
I01
sg15
I01
sbsg35
g2408
sbsS'MessageLogger'
p2416
g0
(cFWCore.ParameterSet.Modules
Service
p2417
g2
Ntp2418
Rp2419
(dp2420
g14
I00
sS'suppressInfo'
p2421
g0
(g19
g20
(lp2422
tp2423
Rp2424
(dp2425
g14
I00
sg32
I00
sg15
I00
sg33
I1
sbsS'suppressDebug'
p2426
g0
(g19
g20
(lp2427
tp2428
Rp2429
(dp2430
g14
I00
sg32
I00
sg15
I00
sg33
I1
sbsS'cout'
p2431
g0
(g85
g2
Ntp2432
Rp2433
(dp2434
g14
I00
sg32
I00
sS'placeholder'
p2435
g0
(g462
g2
Ntp2436
Rp2437
(dp2438
g14
I00
sg32
I00
sg105
I01
sg15
I00
sbsg15
I00
sg11
(lp2439
g2435
asbsg16
I10
sS'debugModules'
p2440
g0
(g19
g20
(lp2441
tp2442
Rp2443
(dp2444
g14
I00
sg32
I00
sg15
I00
sg33
I1
sbsg35
g2416
sS'fwkJobReports'
p2445
g0
(g19
g20
(lp2446
S'FrameworkJobReport'
p2447
atp2448
Rp2449
(dp2450
g14
I00
sg32
I00
sg15
I00
sg33
I1
sbsg11
(lp2451
g2421
aS'debugs'
p2452
ag2426
ag2431
aS'cerr_stats'
p2453
aS'warnings'
p2454
aS'default'
p2455
aS'statistics'
p2456
aS'cerr'
p2457
ag2447
aS'suppressWarning'
p2458
aS'errors'
p2459
aS'destinations'
p2460
ag2440
aS'infos'
p2461
aS'categories'
p2462
ag2445
asg2456
g0
(g19
g20
(lp2463
g2453
atp2464
Rp2465
(dp2466
g14
I00
sg32
I00
sg15
I00
sg33
I1
sbsg17
g18
sg2460
g0
(g19
g20
(lp2467
g2454
ag2459
ag2461
ag2452
ag2431
ag2457
atp2468
Rp2469
(dp2470
g14
I00
sg32
I00
sg15
I00
sg33
I1
sbsg2452
g0
(g85
g2
Ntp2471
Rp2472
(dp2473
g14
I00
sg32
I00
sg2435
g0
(g462
g2
Ntp2474
Rp2475
(dp2476
g14
I00
sg32
I00
sg105
I01
sg15
I00
sbsg15
I00
sg11
(lp2477
g2435
asbsg2454
g0
(g85
g2
Ntp2478
Rp2479
(dp2480
g14
I00
sg32
I00
sg2435
g0
(g462
g2
Ntp2481
Rp2482
(dp2483
g14
I00
sg32
I00
sg105
I01
sg15
I00
sbsg15
I00
sg11
(lp2484
g2435
asbsg2459
g0
(g85
g2
Ntp2485
Rp2486
(dp2487
g14
I00
sg32
I00
sg2435
g0
(g462
g2
Ntp2488
Rp2489
(dp2490
g14
I00
sg32
I00
sg105
I01
sg15
I00
sbsg15
I00
sg11
(lp2491
g2435
asbsg2447
g0
(g85
g2
Ntp2492
Rp2493
(dp2494
g14
I00
sg32
I00
sg15
I00
sg2455
g0
(g85
g2
Ntp2495
Rp2496
(dp2497
g14
I00
sg32
I00
sS'limit'
p2498
g0
(g2058
g2
Ntp2499
Rp2500
(dp2501
g14
I00
sg32
I00
sg105
I0
sg15
I00
sbsg15
I00
sg11
(lp2502
g2498
asbsS'FwkJob'
p2503
g0
(g85
g2
Ntp2504
Rp2505
(dp2506
g14
I00
sg32
I00
sg15
I00
sg2498
g0
(g2058
g2
Ntp2507
Rp2508
(dp2509
g14
I00
sg32
I00
sg105
I10000000
sg15
I00
sbsg11
(lp2510
S'optionalPSet'
p2511
ag2498
asg2511
g0
(g462
g2
Ntp2512
Rp2513
(dp2514
g14
I00
sg32
I00
sg105
I01
sg15
I00
sbsbsg11
(lp2515
g2455
ag2511
ag2503
asg2511
g0
(g462
g2
Ntp2516
Rp2517
(dp2518
g14
I00
sg32
I00
sg105
I01
sg15
I00
sbsbsg2458
g0
(g19
g20
(lp2519
tp2520
Rp2521
(dp2522
g14
I00
sg32
I00
sg15
I00
sg33
I1
sbsg2461
g0
(g85
g2
Ntp2523
Rp2524
(dp2525
g14
I00
sg32
I00
sg15
I00
sS'Root_NoDictionary'
p2526
g0
(g85
g2
Ntp2527
Rp2528
(dp2529
g14
I00
sg32
I00
sg15
I00
sg2498
g0
(g2058
g2
Ntp2530
Rp2531
(dp2532
g14
I00
sg32
I00
sg105
I0
sg15
I00
sbsg11
(lp2533
g2511
ag2498
asg2511
g0
(g462
g2
Ntp2534
Rp2535
(dp2536
g14
I00
sg32
I00
sg105
I01
sg15
I00
sbsbsg11
(lp2537
g2511
ag2526
ag2435
asg2511
g0
(g462
g2
Ntp2538
Rp2539
(dp2540
g14
I00
sg32
I00
sg105
I01
sg15
I00
sbsg2435
g0
(g462
g2
Ntp2541
Rp2542
(dp2543
g14
I00
sg32
I00
sg105
I01
sg15
I00
sbsbsg2462
g0
(g19
g20
(lp2544
g2503
aS'FwkReport'
p2545
aS'FwkSummary'
p2546
ag2526
atp2547
Rp2548
(dp2549
g14
I00
sg32
I00
sg15
I00
sg33
I1
sbsg15
I00
sg2453
g0
(g85
g2
Ntp2550
Rp2551
(dp2552
g14
I00
sg32
I00
sg15
I00
sg2511
g0
(g462
g2
Ntp2553
Rp2554
(dp2555
g14
I00
sg32
I00
sg105
I01
sg15
I00
sbsg11
(lp2556
S'threshold'
p2557
aS'output'
p2558
ag2511
asg2557
g0
(g101
g2
Ntp2559
Rp2560
(dp2561
g14
I00
sg32
I00
sg105
S'WARNING'
p2562
sg15
I00
sbsg2558
g0
(g101
g2
Ntp2563
Rp2564
(dp2565
g14
I00
sg32
I00
sg105
g2457
sg15
I00
sbsbsg2455
g0
(g85
g2
Ntp2566
Rp2567
(dp2568
g14
I00
sg32
I00
sg15
I00
sg11
(lp2569
sbsS'_inProcess'
p2570
I01
sg2457
g0
(g85
g2
Ntp2571
Rp2572
(dp2573
g14
I00
sg32
I00
sS'noTimeStamps'
p2574
g0
(g462
g2
Ntp2575
Rp2576
(dp2577
g14
I00
sg32
I00
sg105
I00
sg15
I00
sbsg2545
g0
(g85
g2
Ntp2578
Rp2579
(dp2580
g14
I00
sg32
I00
sg15
I01
sS'reportEvery'
p2581
g0
(g2058
g2
Ntp2582
Rp2583
(dp2584
g14
I00
sg32
I00
sg105
I1
sg15
I01
sbsg2498
g0
(g2058
g2
Ntp2585
Rp2586
(dp2587
g14
I00
sg32
I00
sg105
I10000000
sg15
I00
sbsg11
(lp2588
g2581
ag2511
ag2498
asg2511
g0
(g462
g2
Ntp2589
Rp2590
(dp2591
g14
I00
sg32
I00
sg105
I01
sg15
I00
sbsbsg15
I00
sg2455
g0
(g85
g2
Ntp2592
Rp2593
(dp2594
g14
I00
sg32
I00
sg2498
g0
(g2058
g2
Ntp2595
Rp2596
(dp2597
g14
I00
sg32
I00
sg105
I10000000
sg15
I00
sbsg15
I00
sg11
(lp2598
g2498
asbsg2526
g0
(g85
g2
Ntp2599
Rp2600
(dp2601
g14
I00
sg32
I00
sg15
I00
sg2498
g0
(g2058
g2
Ntp2602
Rp2603
(dp2604
g14
I00
sg32
I00
sg105
I0
sg15
I00
sbsg11
(lp2605
g2511
ag2498
asg2511
g0
(g462
g2
Ntp2606
Rp2607
(dp2608
g14
I00
sg32
I00
sg105
I01
sg15
I00
sbsbsS'INFO'
p2609
g0
(g85
g2
Ntp2610
Rp2611
(dp2612
g14
I00
sg32
I00
sg2498
g0
(g2058
g2
Ntp2613
Rp2614
(dp2615
g14
I00
sg32
I00
sg105
I0
sg15
I00
sbsg15
I00
sg11
(lp2616
g2498
asbsg2511
g0
(g462
g2
Ntp2617
Rp2618
(dp2619
g14
I00
sg32
I00
sg105
I01
sg15
I00
sbsg2503
g0
(g85
g2
Ntp2620
Rp2621
(dp2622
g14
I00
sg32
I00
sg15
I00
sg2498
g0
(g2058
g2
Ntp2623
Rp2624
(dp2625
g14
I00
sg32
I00
sg105
I0
sg15
I00
sbsg11
(lp2626
g2511
ag2498
asg2511
g0
(g462
g2
Ntp2627
Rp2628
(dp2629
g14
I00
sg32
I00
sg105
I01
sg15
I00
sbsbsg2546
g0
(g85
g2
Ntp2630
Rp2631
(dp2632
g14
I00
sg32
I00
sg15
I00
sg2581
g0
(g2058
g2
Ntp2633
Rp2634
(dp2635
g14
I00
sg32
I00
sg105
I1
sg15
I00
sbsg2498
g0
(g2058
g2
Ntp2636
Rp2637
(dp2638
g14
I00
sg32
I00
sg105
I10000000
sg15
I00
sbsg11
(lp2639
g2581
ag2511
ag2498
asg2511
g0
(g462
g2
Ntp2640
Rp2641
(dp2642
g14
I00
sg32
I00
sg105
I01
sg15
I00
sbsbsg11
(lp2643
g2609
ag2574
ag2545
ag2455
ag2526
ag2557
ag2503
ag2546
ag2511
asg2557
g0
(g101
g2
Ntp2644
Rp2645
(dp2646
g14
I00
sg32
I00
sg105
g2609
sg15
I00
sbsbsbsS'_Process__services'
p2647
(dp2648
g2416
g2419
ssS'CastorGeometryFromDBEP'
p2649
g0
(g7
g2
Ntp2650
Rp2651
(dp2652
g11
(lp2653
g2186
asg14
I00
sg15
I00
sg16
I52
sg17
g18
sg34
g2649
sg2186
g0
(g462
g2
Ntp2654
Rp2655
(dp2656
g14
I00
sg32
I01
sg105
I00
sg15
I00
sbsg35
g2649
sbsS'HFRecalParameterBlock'
p2657
g0
(g85
g2
Ntp2658
Rp2659
(dp2660
g14
I00
sg32
I01
sg15
I00
sS'HFdepthTwoParameterA'
p2661
g0
(g338
g20
(lp2662
F0.002861
aF0.004168
aF0.0064
aF0.008388
aF0.011601
aF0.014425
aF0.018633
aF0.023232
aF0.028274
aF0.035447
aF0.051579
aF0.086593
atp2663
Rp2664
(dp2665
g14
I00
sg32
I01
sg15
I00
sbsS'HFdepthOneParameterA'
p2666
g0
(g338
g20
(lp2667
F0.004123
aF0.00602
aF0.008201
aF0.010489
aF0.013379
aF0.016997
aF0.021464
aF0.027371
aF0.034195
aF0.044807
aF0.058939
aF0.125497
atp2668
Rp2669
(dp2670
g14
I00
sg32
I01
sg15
I00
sbsS'HFdepthOneParameterB'
p2671
g0
(g338
g20
(lp2672
F-4e-06
aF-2e-06
aF0.0
aF4e-06
aF1.5e-05
aF2.6e-05
aF6.3e-05
aF8.4e-05
aF0.00016
aF0.000107
aF0.000425
aF0.000209
atp2673
Rp2674
(dp2675
g14
I00
sg32
I01
sg15
I00
sbsS'HFdepthTwoParameterB'
p2676
g0
(g338
g20
(lp2677
F-2e-06
aF-0.0
aF-7e-06
aF-6e-06
aF-2e-06
aF1e-06
aF1.9e-05
aF3.1e-05
aF6.7e-05
aF1.2e-05
aF0.000157
aF-3e-06
atp2678
Rp2679
(dp2680
g14
I00
sg32
I01
sg15
I00
sbsg11
(lp2681
g2666
ag2671
ag2676
ag2661
asg34
g2657
sbsS'trackerGeometryDB'
p2682
g0
(g7
g2
Ntp2683
Rp2684
(dp2685
g11
(lp2686
g2128
aS'fromDDD'
p2687
ag2186
aS'alignmentsLabel'
p2688
asg14
I00
sg2128
g0
(g101
g2
Ntp2689
Rp2690
(dp2691
g14
I00
sg32
I01
sg105
g77
sg15
I00
sbsg15
I00
sg2688
g0
(g101
g2
Ntp2692
Rp2693
(dp2694
g14
I00
sg32
I01
sg105
g77
sg15
I00
sbsg17
g18
sg16
I52
sg34
g2682
sg2687
g0
(g462
g2
Ntp2695
Rp2696
(dp2697
g14
I00
sg32
I01
sg105
I00
sg15
I00
sbsg2186
g0
(g462
g2
Ntp2698
Rp2699
(dp2700
g14
I00
sg32
I01
sg105
I01
sg15
I00
sbsg35
S'TrackerDigiGeometryESModule'
p2701
sbsS'eegeom'
p2702
g0
(g2229
g2
Ntp2703
Rp2704
(dp2705
g11
(lp2706
S'iovIsRunNotTime'
p2707
aS'recordName'
p2708
aS'firstValid'
p2709
asg14
I00
sg15
I00
sg16
I6
sg2708
g0
(g101
g2
Ntp2710
Rp2711
(dp2712
g14
I00
sg32
I01
sg105
S'EcalMappingRcd'
p2713
sg15
I00
sbsg17
S'/cvmfs/cms.cern.ch/slc6_amd64_gcc630/cms/cmssw-patch/CMSSW_9_4_6_patch1/python/Geometry/EcalMapping/EcalMappingRecord_cfi.py'
p2714
sg2709
g0
(cFWCore.ParameterSet.Types
vuint32
p2715
g20
(lp2716
I1
atp2717
Rp2718
(dp2719
g14
I00
sg32
I01
sg15
I00
sbsg34
g2702
sg2707
g0
(g462
g2
Ntp2720
Rp2721
(dp2722
g14
I00
sg32
I01
sg105
I01
sg15
I00
sbsg35
S'EmptyESSource'
p2723
sbsg2088
g479
sS'mvaEleID_Spring15_50ns_Trig_V1_wp80'
p2724
g0
(g85
g2
Ntp2725
Rp2726
(dp2727
g14
I00
sg32
I01
sg15
I01
sg496
g0
(g101
g2
Ntp2728
Rp2729
(dp2730
g14
I00
sg32
I01
sg105
S'mvaEleID-Spring15-50ns-Trig-V1-wp80'
p2731
sg15
I00
sbsg501
g0
(g83
g20
(lp2732
g0
(g85
g2
Ntp2733
Rp2734
(dp2735
g14
I00
sg32
I01
sg2146
g0
(g68
g2
Ntp2736
Rp2737
(dp2738
g14
I00
sg32
I01
sg15
I00
sg72
S'electronMVAValueMapProducer'
p2739
sg74
g77
sg76
S'ElectronMVAEstimatorRun2Spring15Trig50nsV1Values'
p2740
sbsg2152
g0
(g68
g2
Ntp2741
Rp2742
(dp2743
g14
I00
sg32
I01
sg15
I00
sg72
S'electronMVAValueMapProducer'
p2744
sg74
g77
sg76
S'ElectronMVAEstimatorRun2Spring15Trig50nsV1Categories'
p2745
sbsg506
g0
(g101
g2
Ntp2746
Rp2747
(dp2748
g14
I00
sg32
I01
sg105
g2161
sg15
I00
sbsg511
g0
(g462
g2
Ntp2749
Rp2750
(dp2751
g14
I00
sg32
I01
sg105
I01
sg15
I00
sbsg2165
g0
(g338
g20
(lp2752
F0.981841
aF0.946762
aF0.79704
atp2753
Rp2754
(dp2755
g14
I00
sg32
I01
sg15
I00
sbsg515
g0
(g462
g2
Ntp2756
Rp2757
(dp2758
g14
I00
sg32
I01
sg105
I00
sg15
I00
sbsg11
(lp2759
g2146
ag2152
ag506
ag511
ag2165
ag515
asg15
I00
sbatp2760
Rp2761
(dp2762
g14
I00
sg32
I01
sg15
I00
sg33
I1
sbsg822
g0
(g462
g2
Ntp2763
Rp2764
(dp2765
g14
I00
sg32
I00
sg105
I01
sg15
I00
sbsg11
(lp2766
g496
ag501
ag822
asg34
g2724
sbsg2382
g0
(cFWCore.ParameterSet.SequenceTypes
Path
p2767
g2
Ntp2768
Rp2769
(dp2770
g14
I00
sg43
g0
(g2356
g2
Ntp2771
Rp2772
(dp2773
g55
(lp2774
g41
ag0
(cFWCore.ParameterSet.Modules
EDFilter
p2775
g2
Ntp2776
Rp2777
(dp2778
g14
I00
sg16
I106
sS'looseMap'
p2779
g0
(g68
g2
Ntp2780
Rp2781
(dp2782
g14
I00
sg32
I01
sg15
I00
sg72
S'egmGsfElectronIDs'
p2783
sg76
S'cutBasedElectronID-Fall17-94X-V1-loose'
p2784
sg74
g77
sbsS'useMC'
p2785
g0
(g462
g2
Ntp2786
Rp2787
(dp2788
g14
I00
sg32
I01
sg105
I01
sg15
I00
sbsS'TagPassID'
p2789
g0
(g101
g2
Ntp2790
Rp2791
(dp2792
g14
I00
sg32
I01
sg105
S'tight'
p2793
sg15
I00
sbsS'tightMap'
p2794
g0
(g68
g2
Ntp2795
Rp2796
(dp2797
g14
I00
sg32
I01
sg15
I00
sg72
S'egmGsfElectronIDs'
p2798
sg76
S'cutBasedElectronID-Fall17-94X-V1-tight'
p2799
sg74
g77
sbsS'triggerCache'
p2800
g0
(g83
g20
(lp2801
g0
(g85
g2
Ntp2802
Rp2803
(dp2804
g14
I00
sg32
I01
sg15
I00
sg11
(lp2805
S'FilterName'
p2806
aS'HLTName'
p2807
asg2806
g0
(g101
g2
Ntp2808
Rp2809
(dp2810
g14
I00
sg32
I01
sg105
S'hltEle40noerWPTightGsfTrackIsoFilter'
p2811
sg15
I00
sbsg2807
g0
(g101
g2
Ntp2812
Rp2813
(dp2814
g14
I00
sg32
I01
sg105
S'HLT_Ele40_WPTight_Gsf_v*'
p2815
sg15
I00
sbsbag0
(g85
g2
Ntp2816
Rp2817
(dp2818
g14
I00
sg32
I01
sg15
I00
sg11
(lp2819
g2806
ag2807
asg2806
g0
(g101
g2
Ntp2820
Rp2821
(dp2822
g14
I00
sg32
I01
sg105
S'hltEle38noerWPTightGsfTrackIsoFilter'
p2823
sg15
I00
sbsg2807
g0
(g101
g2
Ntp2824
Rp2825
(dp2826
g14
I00
sg32
I01
sg105
S'HLT_Ele38_WPTight_Gsf_v*'
p2827
sg15
I00
sbsbag0
(g85
g2
Ntp2828
Rp2829
(dp2830
g14
I00
sg32
I01
sg15
I00
sg11
(lp2831
g2806
ag2807
asg2806
g0
(g101
g2
Ntp2832
Rp2833
(dp2834
g14
I00
sg32
I01
sg105
S'hltEle35noerWPTightGsfTrackIsoFilter'
p2835
sg15
I00
sbsg2807
g0
(g101
g2
Ntp2836
Rp2837
(dp2838
g14
I00
sg32
I01
sg105
S'HLT_Ele35_WPTight_Gsf_v*'
p2839
sg15
I00
sbsbag0
(g85
g2
Ntp2840
Rp2841
(dp2842
g14
I00
sg32
I01
sg15
I00
sg11
(lp2843
g2806
ag2807
asg2806
g0
(g101
g2
Ntp2844
Rp2845
(dp2846
g14
I00
sg32
I01
sg105
S'hltEle32WPTightGsfTrackIsoFilter'
p2847
sg15
I00
sbsg2807
g0
(g101
g2
Ntp2848
Rp2849
(dp2850
g14
I00
sg32
I01
sg105
S'HLT_Ele32_WPTight_Gsf_v*'
p2851
sg15
I00
sbsbag0
(g85
g2
Ntp2852
Rp2853
(dp2854
g14
I00
sg32
I01
sg15
I00
sg11
(lp2855
g2806
ag2807
asg2806
g0
(g101
g2
Ntp2856
Rp2857
(dp2858
g14
I00
sg32
I01
sg105
S'hltEle27WPTightGsfTrackIsoFilter'
p2859
sg15
I00
sbsg2807
g0
(g101
g2
Ntp2860
Rp2861
(dp2862
g14
I00
sg32
I01
sg105
S'HLT_Ele27_WPTight_Gsf_v*'
p2863
sg15
I00
sbsbatp2864
Rp2865
(dp2866
g14
I00
sg32
I01
sg15
I00
sg33
I1
sbsS'probePtMin'
p2867
g0
(g325
g2
Ntp2868
Rp2869
(dp2870
g14
I00
sg32
I01
sg105
I8
sg15
I00
sbsg35
S'ElFltr'
p2871
sg11
(lp2872
S'Zmassmax'
p2873
aS'HLTInputTag'
p2874
aS'vtxsrc'
p2875
aS'Zmassmin'
p2876
aS'musrc'
p2877
aS'elsrc'
p2878
aS'HLTObjectsInputTag'
p2879
aS'tagEtaMax'
p2880
ag2867
aS'tagPtMin'
p2881
aS'probeImpact'
p2882
aS'mediumMap'
p2883
ag2789
ag2794
aS'heepMap'
p2884
ag2800
ag2779
aS'ProbePassID'
p2885
aS'probeEtaMax'
p2886
aS'tagImpact'
p2887
ag2785
asg17
g2377
sg2882
g0
(g462
g2
Ntp2888
Rp2889
(dp2890
g14
I00
sg32
I01
sg105
I01
sg15
I00
sbsg2876
g0
(g325
g2
Ntp2891
Rp2892
(dp2893
g14
I00
sg32
I01
sg105
I60
sg15
I00
sbsg2877
g0
(g68
g2
Ntp2894
Rp2895
(dp2896
g14
I00
sg32
I01
sg15
I00
sg72
S'slimmedMuons'
p2897
sg76
g77
sg74
g77
sbsg2885
g0
(g101
g2
Ntp2898
Rp2899
(dp2900
g14
I00
sg32
I01
sg105
g2793
sg15
I00
sbsg2886
g0
(g325
g2
Ntp2901
Rp2902
(dp2903
g14
I00
sg32
I01
sg105
F2.5
sg15
I00
sbsg2873
g0
(g325
g2
Ntp2904
Rp2905
(dp2906
g14
I00
sg32
I01
sg105
I120
sg15
I00
sbsg2880
g0
(g325
g2
Ntp2907
Rp2908
(dp2909
g14
I00
sg32
I01
sg105
F2.5
sg15
I00
sbsg2881
g0
(g325
g2
Ntp2910
Rp2911
(dp2912
g14
I00
sg32
I01
sg105
I30
sg15
I00
sbsg2875
g0
(g68
g2
Ntp2913
Rp2914
(dp2915
g14
I00
sg32
I01
sg15
I00
sg72
g2015
sg76
g77
sg74
g77
sbsg2883
g0
(g68
g2
Ntp2916
Rp2917
(dp2918
g14
I00
sg32
I01
sg15
I00
sg72
S'egmGsfElectronIDs'
p2919
sg76
S'cutBasedElectronID-Fall17-94X-V1-medium'
p2920
sg74
g77
sbsg2879
g0
(g68
g2
Ntp2921
Rp2922
(dp2923
g14
I00
sg32
I01
sg15
I00
sg72
S'slimmedPatTrigger'
p2924
sg76
g77
sg74
g77
sbsg2887
g0
(g462
g2
Ntp2925
Rp2926
(dp2927
g14
I00
sg32
I01
sg105
I01
sg15
I00
sbsg2884
g0
(g68
g2
Ntp2928
Rp2929
(dp2930
g14
I00
sg32
I01
sg15
I00
sg72
S'egmGsfElectronIDs'
p2931
sg76
S'heepElectronID-HEEPV60'
p2932
sg74
g77
sbsg15
I00
sg2874
g0
(g68
g2
Ntp2933
Rp2934
(dp2935
g14
I00
sg32
I01
sg15
I00
sg72
S'TriggerResults'
p2936
sg76
g77
sg74
S'HLT'
p2937
sbsg2878
g0
(g68
g2
Ntp2938
Rp2939
(dp2940
g14
I00
sg32
I01
sg15
I00
sg72
g73
sg76
g77
sg74
g77
sbsg34
S'datafltr'
p2941
sbasbsg34
g2382
sg15
I00
sg44
g0
(g45
g2
Ntp2942
Rp2943
(dp2944
g49
(dp2945
sg2090
(lp2946
Nag2946
ag2946
asbsbsS'_Process__vpsets'
p2947
(dp2948
g420
g418
ssS'EcalTrigTowerConstituentsMapBuilder'
p2949
g0
(g7
g2
Ntp2950
Rp2951
(dp2952
g11
(lp2953
S'MapFile'
p2954
asg14
I00
sg15
I00
sg2954
g0
(g101
g2
Ntp2955
Rp2956
(dp2957
g14
I00
sg32
I00
sg105
S'Geometry/EcalMapping/data/EndCap_TTMap.txt'
p2958
sg15
I00
sbsg17
g18
sg16
I52
sg34
g2949
sg35
g2949
sbsS'siStripBackPlaneCorrectionDepESProducer'
p2959
g0
(g7
g2
Ntp2960
Rp2961
(dp2962
g11
(lp2963
S'LatencyRecord'
p2964
aS'BackPlaneCorrectionDeconvMode'
p2965
aS'BackPlaneCorrectionPeakMode'
p2966
asg14
I00
sg15
I00
sg16
I52
sg17
g18
sg2964
g0
(g85
g2
Ntp2967
Rp2968
(dp2969
g14
I00
sg32
I01
sg15
I00
sg2113
g0
(g101
g2
Ntp2970
Rp2971
(dp2972
g14
I00
sg32
I00
sg105
g77
sg15
I00
sbsg2203
g0
(g101
g2
Ntp2973
Rp2974
(dp2975
g14
I00
sg32
I01
sg105
S'SiStripLatencyRcd'
p2976
sg15
I00
sbsg11
(lp2977
g2203
ag2113
asbsg2966
g0
(g85
g2
Ntp2978
Rp2979
(dp2980
g14
I00
sg32
I01
sg15
I00
sg2113
g0
(g101
g2
Ntp2981
Rp2982
(dp2983
g14
I00
sg32
I00
sg105
S'peak'
p2984
sg15
I00
sbsg2203
g0
(g101
g2
Ntp2985
Rp2986
(dp2987
g14
I00
sg32
I01
sg105
S'SiStripBackPlaneCorrectionRcd'
p2988
sg15
I00
sbsg11
(lp2989
g2203
ag2113
asbsg34
g2959
sg2965
g0
(g85
g2
Ntp2990
Rp2991
(dp2992
g14
I00
sg32
I01
sg15
I00
sg2113
g0
(g101
g2
Ntp2993
Rp2994
(dp2995
g14
I00
sg32
I00
sg105
S'deconvolution'
p2996
sg15
I00
sbsg2203
g0
(g101
g2
Ntp2997
Rp2998
(dp2999
g14
I00
sg32
I01
sg105
g2988
sg15
I00
sbsg11
(lp3000
g2203
ag2113
asbsg35
S'SiStripBackPlaneCorrectionDepESProducer'
p3001
sbsS'_Process__esprefers'
p3002
(dp3003
S'es_prefer_hcalHardcode'
p3004
g0
(cFWCore.ParameterSet.Modules
ESPrefer
p3005
g2
Ntp3006
Rp3007
(dp3008
g11
(lp3009
sg14
I00
sg15
I00
sS'_targetLabel'
p3010
S'es_hardcode'
p3011
sg16
I88
sg17
g18
sg34
g3004
sg35
S'HcalHardcodeCalibrations'
p3012
sbssg245
g213
sS'_Process__isStrict'
p3013
I00
sS'_Process__outputmodules'
p3014
(dp3015
g2387
g2363
ssS'_Process__analyzers'
p3016
(dp3017
sS'mvaEleID_PHYS14_PU20bx25_nonTrig_V1_wp80'
p3018
g0
(g85
g2
Ntp3019
Rp3020
(dp3021
g14
I00
sg32
I01
sg15
I01
sg496
g0
(g101
g2
Ntp3022
Rp3023
(dp3024
g14
I00
sg32
I01
sg105
S'mvaEleID-PHYS14-PU20bx25-nonTrig-V1-wp80'
p3025
sg15
I00
sbsg501
g0
(g83
g20
(lp3026
g0
(g85
g2
Ntp3027
Rp3028
(dp3029
g14
I00
sg32
I01
sg2146
g0
(g68
g2
Ntp3030
Rp3031
(dp3032
g14
I00
sg32
I01
sg15
I00
sg72
S'electronMVAValueMapProducer'
p3033
sg74
g77
sg76
S'ElectronMVAEstimatorRun2Phys14NonTrig25nsV1Values'
p3034
sbsg2152
g0
(g68
g2
Ntp3035
Rp3036
(dp3037
g14
I00
sg32
I01
sg15
I00
sg72
S'electronMVAValueMapProducer'
p3038
sg74
g77
sg76
S'ElectronMVAEstimatorRun2Phys14NonTrig25nsV1Categories'
p3039
sbsg506
g0
(g101
g2
Ntp3040
Rp3041
(dp3042
g14
I00
sg32
I01
sg105
g2161
sg15
I00
sbsg511
g0
(g462
g2
Ntp3043
Rp3044
(dp3045
g14
I00
sg32
I01
sg105
I01
sg15
I00
sbsg2165
g0
(g338
g20
(lp3046
F-0.253
aF0.081
aF-0.081
aF0.965
aF0.917
aF0.683
atp3047
Rp3048
(dp3049
g14
I00
sg32
I01
sg15
I00
sbsg515
g0
(g462
g2
Ntp3050
Rp3051
(dp3052
g14
I00
sg32
I01
sg105
I00
sg15
I00
sbsg11
(lp3053
g2146
ag2152
ag506
ag511
ag2165
ag515
asg15
I00
sbatp3054
Rp3055
(dp3056
g14
I00
sg32
I01
sg15
I00
sg33
I1
sbsg822
g0
(g462
g2
Ntp3057
Rp3058
(dp3059
g14
I00
sg32
I00
sg105
I00
sg15
I00
sbsg11
(lp3060
g496
ag501
ag822
asg34
g3018
sbsg38
g41
sS'idealForDigiTrackerGeometry'
p3061
g0
(g7
g2
Ntp3062
Rp3063
(dp3064
g11
(lp3065
g2128
ag2687
ag2186
ag2688
asg14
I00
sg2128
g0
(g101
g2
Ntp3066
Rp3067
(dp3068
g14
I00
sg32
I01
sg105
S'idealForDigi'
p3069
sg15
I01
sbsg15
I01
sg2688
g0
(g101
g2
Ntp3070
Rp3071
(dp3072
g14
I00
sg32
I01
sg105
S'fakeForIdeal'
p3073
sg15
I01
sbsg17
S'/cvmfs/cms.cern.ch/slc6_amd64_gcc630/cms/cmssw-patch/CMSSW_9_4_6_patch1/python/Geometry/TrackerGeometryBuilder/idealForDigiTrackerGeometryDB_cff.py'
p3074
sg16
I8
sg34
g3061
sg2687
g0
(g462
g2
Ntp3075
Rp3076
(dp3077
g14
I00
sg32
I01
sg105
I00
sg15
I00
sbsg2186
g0
(g462
g2
Ntp3078
Rp3079
(dp3080
g14
I00
sg32
I01
sg105
I00
sg15
I01
sbsg35
g2701
sbsS'_Process__looper'
p3081
NsS'_Process__tasks'
p3082
(dp3083
g2091
g53
ssS'_Process__paths'
p3084
g0
(g2348
g2349
(dp3085
g2382
g2769
stp3086
Rp3087
(dp3088
g2401
(lp3089
g2382
asbsg211
g184
sS'MuonNumberingInitialization'
p3090
g0
(g7
g2
Ntp3091
Rp3092
(dp3093
g11
(lp3094
sg14
I00
sg15
I00
sg16
I52
sg17
g18
sg34
g3090
sg35
g3090
sbsS'options'
p3095
g0
(g85
g2
Ntp3096
Rp3097
(dp3098
g14
I00
sg32
I00
sg15
I00
sS'wantSummary'
p3099
g0
(g462
g2
Ntp3100
Rp3101
(dp3102
g14
I00
sg32
I00
sg105
I01
sg15
I00
sbsg11
(lp3103
g3099
asg34
g3095
sbsS'DTGeometryESModule'
p3104
g0
(g7
g2
Ntp3105
Rp3106
(dp3107
g11
(lp3108
g2128
ag2687
ag2186
ag2688
asg14
I00
sg2128
g0
(g101
g2
Ntp3109
Rp3110
(dp3111
g14
I00
sg32
I01
sg105
g77
sg15
I00
sbsg15
I00
sg2688
g0
(g101
g2
Ntp3112
Rp3113
(dp3114
g14
I00
sg32
I01
sg105
g77
sg15
I00
sbsg17
g18
sg16
I52
sg34
g3104
sg2687
g0
(g462
g2
Ntp3115
Rp3116
(dp3117
g14
I00
sg32
I01
sg105
I00
sg15
I00
sbsg2186
g0
(g462
g2
Ntp3118
Rp3119
(dp3120
g14
I00
sg32
I01
sg105
I01
sg15
I00
sbsg35
g3104
sbsS'VolumeBasedMagneticFieldESProducer'
p3121
g0
(g7
g2
Ntp3122
Rp3123
(dp3124
g11
(lp3125
S'valueOverride'
p3126
aS'debugBuilder'
p3127
ag2113
asg14
I00
sg3126
g0
(g2058
g2
Ntp3128
Rp3129
(dp3130
g14
I00
sg32
I01
sg105
I18268
sg15
I01
sbsg16
I52
sg17
g18
sg2113
g0
(g101
g2
Ntp3131
Rp3132
(dp3133
g14
I00
sg32
I00
sg105
g77
sg15
I00
sbsg3127
g0
(g462
g2
Ntp3134
Rp3135
(dp3136
g14
I00
sg32
I00
sg105
I00
sg15
I00
sbsg34
g3121
sg35
S'VolumeBasedMagneticFieldESProducerFromDB'
p3137
sg15
I01
sbsg151
g115
sS'mvaEleID_Spring15_25ns_Trig_V1_wp90'
p3138
g0
(g85
g2
Ntp3139
Rp3140
(dp3141
g14
I00
sg32
I01
sg15
I01
sg496
g0
(g101
g2
Ntp3142
Rp3143
(dp3144
g14
I00
sg32
I01
sg105
S'mvaEleID-Spring15-25ns-Trig-V1-wp90'
p3145
sg15
I00
sbsg501
g0
(g83
g20
(lp3146
g0
(g85
g2
Ntp3147
Rp3148
(dp3149
g14
I00
sg32
I01
sg2146
g0
(g68
g2
Ntp3150
Rp3151
(dp3152
g14
I00
sg32
I01
sg15
I00
sg72
S'electronMVAValueMapProducer'
p3153
sg74
g77
sg76
S'ElectronMVAEstimatorRun2Spring15Trig25nsV1Values'
p3154
sbsg2152
g0
(g68
g2
Ntp3155
Rp3156
(dp3157
g14
I00
sg32
I01
sg15
I00
sg72
S'electronMVAValueMapProducer'
p3158
sg74
g77
sg76
S'ElectronMVAEstimatorRun2Spring15Trig25nsV1Categories'
p3159
sbsg506
g0
(g101
g2
Ntp3160
Rp3161
(dp3162
g14
I00
sg32
I01
sg105
g2161
sg15
I00
sbsg511
g0
(g462
g2
Ntp3163
Rp3164
(dp3165
g14
I00
sg32
I01
sg105
I01
sg15
I00
sbsg2165
g0
(g338
g20
(lp3166
F0.972153
aF0.922126
aF0.610764
atp3167
Rp3168
(dp3169
g14
I00
sg32
I01
sg15
I00
sbsg515
g0
(g462
g2
Ntp3170
Rp3171
(dp3172
g14
I00
sg32
I01
sg105
I00
sg15
I00
sbsg11
(lp3173
g2146
ag2152
ag506
ag511
ag2165
ag515
asg15
I00
sbatp3174
Rp3175
(dp3176
g14
I00
sg32
I01
sg15
I00
sg33
I1
sbsg822
g0
(g462
g2
Ntp3177
Rp3178
(dp3179
g14
I00
sg32
I00
sg105
I01
sg15
I00
sbsg11
(lp3180
g496
ag501
ag822
asg34
g3138
sbsS'CaloTopologyBuilder'
p3181
g0
(g7
g2
Ntp3182
Rp3183
(dp3184
g11
(lp3185
sg14
I00
sg15
I00
sg16
I52
sg17
g18
sg34
g3181
sg35
g3181
sbsS'mvaEleID_PHYS14_PU20bx25_nonTrig_V1_wp90'
p3186
g0
(g85
g2
Ntp3187
Rp3188
(dp3189
g14
I00
sg32
I01
sg15
I01
sg496
g0
(g101
g2
Ntp3190
Rp3191
(dp3192
g14
I00
sg32
I01
sg105
S'mvaEleID-PHYS14-PU20bx25-nonTrig-V1-wp90'
p3193
sg15
I00
sbsg501
g0
(g83
g20
(lp3194
g0
(g85
g2
Ntp3195
Rp3196
(dp3197
g14
I00
sg32
I01
sg2146
g0
(g68
g2
Ntp3198
Rp3199
(dp3200
g14
I00
sg32
I01
sg15
I00
sg72
S'electronMVAValueMapProducer'
p3201
sg74
g77
sg76
S'ElectronMVAEstimatorRun2Phys14NonTrig25nsV1Values'
p3202
sbsg2152
g0
(g68
g2
Ntp3203
Rp3204
(dp3205
g14
I00
sg32
I01
sg15
I00
sg72
S'electronMVAValueMapProducer'
p3206
sg74
g77
sg76
S'ElectronMVAEstimatorRun2Phys14NonTrig25nsV1Categories'
p3207
sbsg506
g0
(g101
g2
Ntp3208
Rp3209
(dp3210
g14
I00
sg32
I01
sg105
g2161
sg15
I00
sbsg511
g0
(g462
g2
Ntp3211
Rp3212
(dp3213
g14
I00
sg32
I01
sg105
I01
sg15
I00
sbsg2165
g0
(g338
g20
(lp3214
F-0.483
aF-0.267
aF-0.323
aF0.933
aF0.825
aF0.337
atp3215
Rp3216
(dp3217
g14
I00
sg32
I01
sg15
I00
sbsg515
g0
(g462
g2
Ntp3218
Rp3219
(dp3220
g14
I00
sg32
I01
sg105
I00
sg15
I00
sbsg11
(lp3221
g2146
ag2152
ag506
ag511
ag2165
ag515
asg15
I00
sbatp3222
Rp3223
(dp3224
g14
I00
sg32
I01
sg15
I00
sg33
I1
sbsg822
g0
(g462
g2
Ntp3225
Rp3226
(dp3227
g14
I00
sg32
I00
sg105
I00
sg15
I00
sbsg11
(lp3228
g496
ag501
ag822
asg34
g3186
sbsS'SiStripRecHitMatcherESProducer'
p3229
g0
(g7
g2
Ntp3230
Rp3231
(dp3232
g11
(lp3233
S'PreFilter'
p3234
aS'ComponentName'
p3235
aS'NSigmaInside'
p3236
asg14
I00
sg15
I00
sg17
g18
sg3235
g0
(g101
g2
Ntp3237
Rp3238
(dp3239
g14
I00
sg32
I01
sg105
S'StandardMatcher'
p3240
sg15
I00
sbsg3234
g0
(g462
g2
Ntp3241
Rp3242
(dp3243
g14
I00
sg32
I01
sg105
I00
sg15
I00
sbsg16
I52
sg3236
g0
(g325
g2
Ntp3244
Rp3245
(dp3246
g14
I00
sg32
I01
sg105
F3.0
sg15
I00
sbsg34
g3229
sg35
g3229
sbsS'_Process__psets'
p3247
(dp3248
g245
g213
sg353
g277
sg410
g361
sg3138
g3140
sS'mvaEleID_Spring15_25ns_nonTrig_V1_wpLoose'
p3249
g0
(g85
g2
Ntp3250
Rp3251
(dp3252
g14
I00
sg32
I01
sg15
I01
sg496
g0
(g101
g2
Ntp3253
Rp3254
(dp3255
g14
I00
sg32
I01
sg105
S'mvaEleID-Spring15-25ns-nonTrig-V1-wpLoose'
p3256
sg15
I00
sbsg501
g0
(g83
g20
(lp3257
g0
(g85
g2
Ntp3258
Rp3259
(dp3260
g14
I00
sg32
I01
sg2146
g0
(g68
g2
Ntp3261
Rp3262
(dp3263
g14
I00
sg32
I01
sg15
I00
sg72
S'electronMVAValueMapProducer'
p3264
sg74
g77
sg76
S'ElectronMVAEstimatorRun2Spring15NonTrig25nsV1Values'
p3265
sbsg2152
g0
(g68
g2
Ntp3266
Rp3267
(dp3268
g14
I00
sg32
I01
sg15
I00
sg72
S'electronMVAValueMapProducer'
p3269
sg74
g77
sg76
S'ElectronMVAEstimatorRun2Spring15NonTrig25nsV1Categories'
p3270
sbsg506
g0
(g101
g2
Ntp3271
Rp3272
(dp3273
g14
I00
sg32
I01
sg105
g2161
sg15
I00
sbsg511
g0
(g462
g2
Ntp3274
Rp3275
(dp3276
g14
I00
sg32
I01
sg105
I01
sg15
I00
sbsg2165
g0
(g338
g20
(lp3277
F-0.265
aF-0.556
aF-0.551
aF-0.072
aF-0.286
aF-0.267
atp3278
Rp3279
(dp3280
g14
I00
sg32
I01
sg15
I00
sbsg515
g0
(g462
g2
Ntp3281
Rp3282
(dp3283
g14
I00
sg32
I01
sg105
I00
sg15
I00
sbsg11
(lp3284
g2146
ag2152
ag506
ag511
ag2165
ag515
asg15
I00
sbatp3285
Rp3286
(dp3287
g14
I00
sg32
I01
sg15
I00
sg33
I1
sbsg822
g0
(g462
g2
Ntp3288
Rp3289
(dp3290
g14
I00
sg32
I00
sg105
I01
sg15
I00
sbsg11
(lp3291
g496
ag501
ag822
asg34
g3249
sbsg2304
g2306
sS'mvaEleID_Spring15_25ns_nonTrig_V1_wp80'
p3292
g0
(g85
g2
Ntp3293
Rp3294
(dp3295
g14
I00
sg32
I01
sg15
I01
sg496
g0
(g101
g2
Ntp3296
Rp3297
(dp3298
g14
I00
sg32
I01
sg105
S'mvaEleID-Spring15-25ns-nonTrig-V1-wp80'
p3299
sg15
I00
sbsg501
g0
(g83
g20
(lp3300
g0
(g85
g2
Ntp3301
Rp3302
(dp3303
g14
I00
sg32
I01
sg2146
g0
(g68
g2
Ntp3304
Rp3305
(dp3306
g14
I00
sg32
I01
sg15
I00
sg72
S'electronMVAValueMapProducer'
p3307
sg74
g77
sg76
S'ElectronMVAEstimatorRun2Spring15NonTrig25nsV1Values'
p3308
sbsg2152
g0
(g68
g2
Ntp3309
Rp3310
(dp3311
g14
I00
sg32
I01
sg15
I00
sg72
S'electronMVAValueMapProducer'
p3312
sg74
g77
sg76
S'ElectronMVAEstimatorRun2Spring15NonTrig25nsV1Categories'
p3313
sbsg506
g0
(g101
g2
Ntp3314
Rp3315
(dp3316
g14
I00
sg32
I01
sg105
g2161
sg15
I00
sbsg511
g0
(g462
g2
Ntp3317
Rp3318
(dp3319
g14
I00
sg32
I01
sg105
I01
sg15
I00
sbsg2165
g0
(g338
g20
(lp3320
F0.287435
aF0.221846
aF-0.303263
aF0.967083
aF0.929117
aF0.726311
atp3321
Rp3322
(dp3323
g14
I00
sg32
I01
sg15
I00
sbsg515
g0
(g462
g2
Ntp3324
Rp3325
(dp3326
g14
I00
sg32
I01
sg105
I00
sg15
I00
sbsg11
(lp3327
g2146
ag2152
ag506
ag511
ag2165
ag515
asg15
I00
sbatp3328
Rp3329
(dp3330
g14
I00
sg32
I01
sg15
I00
sg33
I1
sbsg822
g0
(g462
g2
Ntp3331
Rp3332
(dp3333
g14
I00
sg32
I00
sg105
I01
sg15
I00
sbsg11
(lp3334
g496
ag501
ag822
asg34
g3292
sbsg182
g153
sS'mvaEleID_Spring15_25ns_Trig_V1_wp80'
p3335
g0
(g85
g2
Ntp3336
Rp3337
(dp3338
g14
I00
sg32
I01
sg15
I01
sg496
g0
(g101
g2
Ntp3339
Rp3340
(dp3341
g14
I00
sg32
I01
sg105
S'mvaEleID-Spring15-25ns-Trig-V1-wp80'
p3342
sg15
I00
sbsg501
g0
(g83
g20
(lp3343
g0
(g85
g2
Ntp3344
Rp3345
(dp3346
g14
I00
sg32
I01
sg2146
g0
(g68
g2
Ntp3347
Rp3348
(dp3349
g14
I00
sg32
I01
sg15
I00
sg72
S'electronMVAValueMapProducer'
p3350
sg74
g77
sg76
S'ElectronMVAEstimatorRun2Spring15Trig25nsV1Values'
p3351
sbsg2152
g0
(g68
g2
Ntp3352
Rp3353
(dp3354
g14
I00
sg32
I01
sg15
I00
sg72
S'electronMVAValueMapProducer'
p3355
sg74
g77
sg76
S'ElectronMVAEstimatorRun2Spring15Trig25nsV1Categories'
p3356
sbsg506
g0
(g101
g2
Ntp3357
Rp3358
(dp3359
g14
I00
sg32
I01
sg105
g2161
sg15
I00
sbsg511
g0
(g462
g2
Ntp3360
Rp3361
(dp3362
g14
I00
sg32
I01
sg105
I01
sg15
I00
sbsg2165
g0
(g338
g20
(lp3363
F0.988153
aF0.96791
aF0.841729
atp3364
Rp3365
(dp3366
g14
I00
sg32
I01
sg15
I00
sbsg515
g0
(g462
g2
Ntp3367
Rp3368
(dp3369
g14
I00
sg32
I01
sg105
I00
sg15
I00
sbsg11
(lp3370
g2146
ag2152
ag506
ag511
ag2165
ag515
asg15
I00
sbatp3371
Rp3372
(dp3373
g14
I00
sg32
I01
sg15
I00
sg33
I1
sbsg822
g0
(g462
g2
Ntp3374
Rp3375
(dp3376
g14
I00
sg32
I00
sg105
I01
sg15
I00
sbsg11
(lp3377
g496
ag501
ag822
asg34
g3335
sbsg151
g115
sg2724
g2726
sS'maxEvents'
p3378
g0
(g85
g2
Ntp3379
Rp3380
(dp3381
g14
I00
sg32
I00
sg15
I00
sg11
(lp3382
S'input'
p3383
asg34
g3378
sg3383
g0
(g2058
g2
Ntp3384
Rp3385
(dp3386
g14
I00
sg32
I00
sg105
I-1
sg15
I00
sbsbsg113
g87
sg211
g184
sg2134
g2136
sg275
g247
sg2657
g2659
sg3018
g3020
sg3095
g3097
sg3186
g3188
ssS'_Process__essources'
p3387
(dp3388
g3011
g0
(g2229
g2
Ntp3389
Rp3390
(dp3391
g14
I00
sg16
I155
sS'useHEUpgrade'
p3392
g0
(g462
g2
Ntp3393
Rp3394
(dp3395
g14
I00
sg32
I01
sg105
I00
sg15
I00
sbsS'HBRecalibration'
p3396
g0
(g462
g2
Ntp3397
Rp3398
(dp3399
g14
I00
sg32
I01
sg105
I00
sg15
I00
sbsS'useLayer0Weight'
p3400
g0
(g462
g2
Ntp3401
Rp3402
(dp3403
g14
I00
sg32
I01
sg105
I00
sg15
I00
sbsS'HEmeanenergies'
p3404
g0
(g754
g2
Ntp3405
Rp3406
(dp3407
g14
I00
sg32
I01
sg105
S'CalibCalorimetry/HcalPlugins/data/meanenergiesHE.txt'
p3408
sg15
I00
sbsg2657
g2659
sS'heUpgrade'
p3409
g0
(g85
g2
Ntp3410
Rp3411
(dp3412
g14
I00
sg32
I01
sS'qieType'
p3413
g0
(g2058
g2
Ntp3414
Rp3415
(dp3416
g14
I00
sg32
I01
sg105
I2
sg15
I00
sbsg15
I00
sS'pedestalWidth'
p3417
g0
(g325
g2
Ntp3418
Rp3419
(dp3420
g14
I00
sg32
I01
sg105
F1.5
sg15
I00
sbsS'recoShape'
p3421
g0
(g2058
g2
Ntp3422
Rp3423
(dp3424
g14
I00
sg32
I01
sg105
I203
sg15
I00
sbsS'darkCurrent'
p3425
g0
(g338
g20
(lp3426
F0.01
aF0.015
atp3427
Rp3428
(dp3429
g14
I00
sg32
I01
sg15
I00
sbsS'qieOffset'
p3430
g0
(g338
g20
(lp3431
F0.0
aF0.0
aF0.0
aF0.0
atp3432
Rp3433
(dp3434
g14
I00
sg32
I01
sg15
I00
sbsS'qieSlope'
p3435
g0
(g338
g20
(lp3436
F0.05376
aF0.05376
aF0.05376
aF0.05376
atp3437
Rp3438
(dp3439
g14
I00
sg32
I01
sg15
I00
sbsS'radiationDamage'
p3440
g0
(g85
g2
Ntp3441
Rp3442
(dp3443
g14
I00
sg32
I01
sS'temperatureNew'
p3444
g0
(g325
g2
Ntp3445
Rp3446
(dp3447
g14
I00
sg32
I01
sg105
I5
sg15
I00
sbsg15
I00
sS'depVsNeutrons'
p3448
g0
(g338
g20
(lp3449
F5.69e-11
aF7.9e-11
atp3450
Rp3451
(dp3452
g14
I00
sg32
I01
sg15
I00
sbsS'temperatureBase'
p3453
g0
(g325
g2
Ntp3454
Rp3455
(dp3456
g14
I00
sg32
I01
sg105
I20
sg15
I00
sbsS'depVsTemp'
p3457
g0
(g325
g2
Ntp3458
Rp3459
(dp3460
g14
I00
sg32
I01
sg105
F0.0631
sg15
I00
sbsS'intlumiOffset'
p3461
g0
(g325
g2
Ntp3462
Rp3463
(dp3464
g14
I00
sg32
I01
sg105
I75
sg15
I00
sbsg11
(lp3465
g3444
ag3448
ag3453
ag3457
ag3461
aS'intlumiToNeutrons'
p3466
asg3466
g0
(g325
g2
Ntp3467
Rp3468
(dp3469
g14
I00
sg32
I01
sg105
F29200000.0
sg15
I00
sbsbsS'doRadiationDamage'
p3470
g0
(g462
g2
Ntp3471
Rp3472
(dp3473
g14
I00
sg32
I01
sg105
I01
sg15
I00
sbsg11
(lp3474
g3413
ag3417
ag3421
aS'photoelectronsToAnalog'
p3475
ag3430
ag3435
ag3440
ag3470
ag3425
aS'pedestal'
p3476
aS'mcShape'
p3477
aS'gainWidth'
p3478
aS'gain'
p3479
asg3475
g0
(g325
g2
Ntp3480
Rp3481
(dp3482
g14
I00
sg32
I01
sg105
F44.0
sg15
I00
sbsg3476
g0
(g325
g2
Ntp3483
Rp3484
(dp3485
g14
I00
sg32
I01
sg105
F17.3
sg15
I00
sbsg3477
g0
(g2058
g2
Ntp3486
Rp3487
(dp3488
g14
I00
sg32
I01
sg105
I203
sg15
I00
sbsg3478
g0
(g338
g20
(lp3489
I0
atp3490
Rp3491
(dp3492
g14
I00
sg32
I01
sg15
I00
sbsg3479
g0
(g338
g20
(lp3493
F0.0004393673110720562
atp3494
Rp3495
(dp3496
g14
I00
sg32
I01
sg15
I00
sbsbsg11
(lp3497
g2240
ag3396
ag3400
ag3404
ag2657
ag3409
aS'useHOUpgrade'
p3498
aS'killHE'
p3499
aS'useHBUpgrade'
p3500
aS'hbUpgrade'
p3501
aS'testHEPlan1'
p3502
aS'iLumi'
p3503
aS'testHFQIE10'
p3504
aS'HBmeanenergies'
p3505
ag3392
aS'GainWidthsForTrigPrims'
p3506
aS'HBreCalibCutoff'
p3507
aS'HFRecalibration'
p3508
aS'ho'
p3509
aS'hb'
p3510
aS'hf'
p3511
aS'he'
p3512
aS'HERecalibration'
p3513
aS'useHFUpgrade'
p3514
aS'HEreCalibCutoff'
p3515
aS'SiPMCharacteristics'
p3516
aS'hfUpgrade'
p3517
asg17
S'/cvmfs/cms.cern.ch/slc6_amd64_gcc630/cms/cmssw-patch/CMSSW_9_4_6_patch1/python/CalibCalorimetry/HcalPlugins/Hcal_Conditions_forGlobalTag_cff.py'
p3518
sg3498
g0
(g462
g2
Ntp3519
Rp3520
(dp3521
g14
I00
sg32
I01
sg105
I01
sg15
I00
sbsg3499
g0
(g462
g2
Ntp3522
Rp3523
(dp3524
g14
I00
sg32
I01
sg105
I00
sg15
I00
sbsg3500
g0
(g462
g2
Ntp3525
Rp3526
(dp3527
g14
I00
sg32
I01
sg105
I00
sg15
I00
sbsg3501
g0
(g85
g2
Ntp3528
Rp3529
(dp3530
g14
I00
sg32
I01
sg3413
g0
(g2058
g2
Ntp3531
Rp3532
(dp3533
g14
I00
sg32
I01
sg105
I2
sg15
I00
sbsg15
I00
sg3417
g0
(g325
g2
Ntp3534
Rp3535
(dp3536
g14
I00
sg32
I01
sg105
F1.5
sg15
I00
sbsg3421
g0
(g2058
g2
Ntp3537
Rp3538
(dp3539
g14
I00
sg32
I01
sg105
I203
sg15
I00
sbsg3425
g0
(g338
g20
(lp3540
F0.01
aF0.015
atp3541
Rp3542
(dp3543
g14
I00
sg32
I01
sg15
I00
sbsg3430
g0
(g338
g20
(lp3544
F0.0
aF0.0
aF0.0
aF0.0
atp3545
Rp3546
(dp3547
g14
I00
sg32
I01
sg15
I00
sbsg3435
g0
(g338
g20
(lp3548
F0.05376
aF0.05376
aF0.05376
aF0.05376
atp3549
Rp3550
(dp3551
g14
I00
sg32
I01
sg15
I00
sbsg3440
g0
(g85
g2
Ntp3552
Rp3553
(dp3554
g14
I00
sg32
I01
sg3444
g0
(g325
g2
Ntp3555
Rp3556
(dp3557
g14
I00
sg32
I01
sg105
I-5
sg15
I00
sbsg15
I00
sg3448
g0
(g338
g20
(lp3558
F5.69e-11
aF7.9e-11
atp3559
Rp3560
(dp3561
g14
I00
sg32
I01
sg15
I00
sbsg3453
g0
(g325
g2
Ntp3562
Rp3563
(dp3564
g14
I00
sg32
I01
sg105
I20
sg15
I00
sbsg3457
g0
(g325
g2
Ntp3565
Rp3566
(dp3567
g14
I00
sg32
I01
sg105
F0.0631
sg15
I00
sbsg3461
g0
(g325
g2
Ntp3568
Rp3569
(dp3570
g14
I00
sg32
I01
sg105
I150
sg15
I00
sbsg11
(lp3571
g3444
ag3448
ag3453
ag3457
ag3461
ag3466
asg3466
g0
(g325
g2
Ntp3572
Rp3573
(dp3574
g14
I00
sg32
I01
sg105
F367000000.0
sg15
I00
sbsbsg3470
g0
(g462
g2
Ntp3575
Rp3576
(dp3577
g14
I00
sg32
I01
sg105
I01
sg15
I00
sbsg11
(lp3578
g3413
ag3417
ag3421
ag3475
ag3430
ag3435
ag3440
ag3470
ag3425
ag3476
ag3477
ag3478
ag3479
asg3475
g0
(g325
g2
Ntp3579
Rp3580
(dp3581
g14
I00
sg32
I01
sg105
F44.0
sg15
I00
sbsg3476
g0
(g325
g2
Ntp3582
Rp3583
(dp3584
g14
I00
sg32
I01
sg105
F17.3
sg15
I00
sbsg3477
g0
(g2058
g2
Ntp3585
Rp3586
(dp3587
g14
I00
sg32
I01
sg105
I203
sg15
I00
sbsg3478
g0
(g338
g20
(lp3588
I0
atp3589
Rp3590
(dp3591
g14
I00
sg32
I01
sg15
I00
sbsg3479
g0
(g338
g20
(lp3592
F0.0004393673110720562
atp3593
Rp3594
(dp3595
g14
I00
sg32
I01
sg15
I00
sbsbsg35
g3012
sg3502
g0
(g462
g2
Ntp3596
Rp3597
(dp3598
g14
I00
sg32
I01
sg105
I00
sg15
I00
sbsg3503
g0
(g325
g2
Ntp3599
Rp3600
(dp3601
g14
I00
sg32
I01
sg105
F-1.0
sg15
I00
sbsg3504
g0
(g462
g2
Ntp3602
Rp3603
(dp3604
g14
I00
sg32
I01
sg105
I00
sg15
I00
sbsg3505
g0
(g754
g2
Ntp3605
Rp3606
(dp3607
g14
I00
sg32
I01
sg105
S'CalibCalorimetry/HcalPlugins/data/meanenergiesHB.txt'
p3608
sg15
I00
sbsg2240
g0
(g19
g20
(lp3609
S'GainWidths'
p3610
atp3611
Rp3612
(dp3613
g14
I00
sg32
I00
sg15
I00
sg33
I1
sbsg3506
g0
(g462
g2
Ntp3614
Rp3615
(dp3616
g14
I00
sg32
I01
sg105
I00
sg15
I00
sbsg3507
g0
(g325
g2
Ntp3617
Rp3618
(dp3619
g14
I00
sg32
I01
sg105
F20.0
sg15
I00
sbsg3508
g0
(g462
g2
Ntp3620
Rp3621
(dp3622
g14
I00
sg32
I01
sg105
I00
sg15
I00
sbsg3509
g0
(g85
g2
Ntp3623
Rp3624
(dp3625
g14
I00
sg32
I01
sg3413
g0
(g2058
g2
Ntp3626
Rp3627
(dp3628
g14
I00
sg32
I01
sg105
I0
sg15
I00
sbsg15
I00
sg3417
g0
(g325
g2
Ntp3629
Rp3630
(dp3631
g14
I00
sg32
I01
sg105
F0.6285
sg15
I00
sbsg3421
g0
(g2058
g2
Ntp3632
Rp3633
(dp3634
g14
I00
sg32
I01
sg105
I201
sg15
I00
sbsg3425
g0
(g338
g20
(lp3635
F0.0
atp3636
Rp3637
(dp3638
g14
I00
sg32
I01
sg15
I00
sbsg3430
g0
(g338
g20
(lp3639
F-0.44
aF1.4
aF7.1
aF38.5
atp3640
Rp3641
(dp3642
g14
I00
sg32
I01
sg15
I00
sbsg3435
g0
(g338
g20
(lp3643
F0.907
aF0.915
aF0.92
aF0.921
atp3644
Rp3645
(dp3646
g14
I00
sg32
I01
sg15
I00
sbsg3479
g0
(g338
g20
(lp3647
F0.006
aF0.0087
atp3648
Rp3649
(dp3650
g14
I00
sg32
I01
sg15
I00
sbsg3470
g0
(g462
g2
Ntp3651
Rp3652
(dp3653
g14
I00
sg32
I01
sg105
I00
sg15
I00
sbsg11
(lp3654
g3413
ag3417
ag3421
ag3475
ag3430
ag3435
ag3479
ag3470
ag3425
ag3476
ag3477
ag3478
asg3475
g0
(g325
g2
Ntp3655
Rp3656
(dp3657
g14
I00
sg32
I01
sg105
F4.0
sg15
I00
sbsg3476
g0
(g325
g2
Ntp3658
Rp3659
(dp3660
g14
I00
sg32
I01
sg105
F12.06
sg15
I00
sbsg3477
g0
(g2058
g2
Ntp3661
Rp3662
(dp3663
g14
I00
sg32
I01
sg105
I201
sg15
I00
sbsg3478
g0
(g338
g20
(lp3664
F0.0
aF0.0
atp3665
Rp3666
(dp3667
g14
I00
sg32
I01
sg15
I00
sbsbsg3510
g0
(g85
g2
Ntp3668
Rp3669
(dp3670
g14
I00
sg32
I01
sg3413
g0
(g2058
g2
Ntp3671
Rp3672
(dp3673
g14
I00
sg32
I01
sg105
I0
sg15
I00
sbsg15
I00
sg3417
g0
(g325
g2
Ntp3674
Rp3675
(dp3676
g14
I00
sg32
I01
sg105
F0.809
sg15
I00
sbsg3421
g0
(g2058
g2
Ntp3677
Rp3678
(dp3679
g14
I00
sg32
I01
sg105
I105
sg15
I00
sbsg3425
g0
(g338
g20
(lp3680
F0.0
atp3681
Rp3682
(dp3683
g14
I00
sg32
I01
sg15
I00
sbsg3430
g0
(g338
g20
(lp3684
F-0.49
aF1.8
aF7.2
aF37.9
atp3685
Rp3686
(dp3687
g14
I00
sg32
I01
sg15
I00
sbsg3435
g0
(g338
g20
(lp3688
F0.912
aF0.917
aF0.922
aF0.923
atp3689
Rp3690
(dp3691
g14
I00
sg32
I01
sg15
I00
sbsg3479
g0
(g338
g20
(lp3692
F0.19
atp3693
Rp3694
(dp3695
g14
I00
sg32
I01
sg15
I00
sbsg3470
g0
(g462
g2
Ntp3696
Rp3697
(dp3698
g14
I00
sg32
I01
sg105
I00
sg15
I00
sbsg11
(lp3699
g3413
ag3417
ag3421
ag3475
ag3430
ag3435
ag3479
ag3470
ag3425
ag3476
ag3477
ag3478
asg3475
g0
(g325
g2
Ntp3700
Rp3701
(dp3702
g14
I00
sg32
I01
sg105
F0.3305
sg15
I00
sbsg3476
g0
(g325
g2
Ntp3703
Rp3704
(dp3705
g14
I00
sg32
I01
sg105
F3.285
sg15
I00
sbsg3477
g0
(g2058
g2
Ntp3706
Rp3707
(dp3708
g14
I00
sg32
I01
sg105
I125
sg15
I00
sbsg3478
g0
(g338
g20
(lp3709
F0.0
atp3710
Rp3711
(dp3712
g14
I00
sg32
I01
sg15
I00
sbsbsg3511
g0
(g85
g2
Ntp3713
Rp3714
(dp3715
g14
I00
sg32
I01
sg3413
g0
(g2058
g2
Ntp3716
Rp3717
(dp3718
g14
I00
sg32
I01
sg105
I0
sg15
I00
sbsg15
I00
sg3417
g0
(g325
g2
Ntp3719
Rp3720
(dp3721
g14
I00
sg32
I01
sg105
F2.516
sg15
I00
sbsg3421
g0
(g2058
g2
Ntp3722
Rp3723
(dp3724
g14
I00
sg32
I01
sg105
I301
sg15
I00
sbsg3425
g0
(g338
g20
(lp3725
F0.0
atp3726
Rp3727
(dp3728
g14
I00
sg32
I01
sg15
I00
sbsg3430
g0
(g338
g20
(lp3729
F-0.87
aF1.4
aF7.8
aF-29.6
atp3730
Rp3731
(dp3732
g14
I00
sg32
I01
sg15
I00
sbsg3435
g0
(g338
g20
(lp3733
F0.359
aF0.358
aF0.36
aF0.367
atp3734
Rp3735
(dp3736
g14
I00
sg32
I01
sg15
I00
sbsg3479
g0
(g338
g20
(lp3737
F0.14
aF0.135
atp3738
Rp3739
(dp3740
g14
I00
sg32
I01
sg15
I00
sbsg3470
g0
(g462
g2
Ntp3741
Rp3742
(dp3743
g14
I00
sg32
I01
sg105
I00
sg15
I00
sbsg11
(lp3744
g3413
ag3417
ag3421
ag3475
ag3430
ag3435
ag3479
ag3470
ag3425
ag3476
ag3477
ag3478
asg3475
g0
(g325
g2
Ntp3745
Rp3746
(dp3747
g14
I00
sg32
I01
sg105
F0.0
sg15
I00
sbsg3476
g0
(g325
g2
Ntp3748
Rp3749
(dp3750
g14
I00
sg32
I01
sg105
F9.354
sg15
I00
sbsg3477
g0
(g2058
g2
Ntp3751
Rp3752
(dp3753
g14
I00
sg32
I01
sg105
I301
sg15
I00
sbsg3478
g0
(g338
g20
(lp3754
F0.0
aF0.0
atp3755
Rp3756
(dp3757
g14
I00
sg32
I01
sg15
I00
sbsbsg3512
g0
(g85
g2
Ntp3758
Rp3759
(dp3760
g14
I00
sg32
I01
sg3413
g0
(g2058
g2
Ntp3761
Rp3762
(dp3763
g14
I00
sg32
I01
sg105
I0
sg15
I00
sbsg15
I00
sg3417
g0
(g325
g2
Ntp3764
Rp3765
(dp3766
g14
I00
sg32
I01
sg105
F0.9698
sg15
I00
sbsg3421
g0
(g2058
g2
Ntp3767
Rp3768
(dp3769
g14
I00
sg32
I01
sg105
I105
sg15
I00
sbsg3425
g0
(g338
g20
(lp3770
F0.0
atp3771
Rp3772
(dp3773
g14
I00
sg32
I01
sg15
I00
sbsg3430
g0
(g338
g20
(lp3774
F-0.38
aF2.0
aF7.6
aF39.6
atp3775
Rp3776
(dp3777
g14
I00
sg32
I01
sg15
I00
sbsg3435
g0
(g338
g20
(lp3778
F0.912
aF0.916
aF0.92
aF0.922
atp3779
Rp3780
(dp3781
g14
I00
sg32
I01
sg15
I00
sbsg3479
g0
(g338
g20
(lp3782
F0.23
atp3783
Rp3784
(dp3785
g14
I00
sg32
I01
sg15
I00
sbsg3470
g0
(g462
g2
Ntp3786
Rp3787
(dp3788
g14
I00
sg32
I01
sg105
I00
sg15
I00
sbsg11
(lp3789
g3413
ag3417
ag3421
ag3475
ag3430
ag3435
ag3479
ag3470
ag3425
ag3476
ag3477
ag3478
asg3475
g0
(g325
g2
Ntp3790
Rp3791
(dp3792
g14
I00
sg32
I01
sg105
F0.3305
sg15
I00
sbsg3476
g0
(g325
g2
Ntp3793
Rp3794
(dp3795
g14
I00
sg32
I01
sg105
F3.163
sg15
I00
sbsg3477
g0
(g2058
g2
Ntp3796
Rp3797
(dp3798
g14
I00
sg32
I01
sg105
I125
sg15
I00
sbsg3478
g0
(g338
g20
(lp3799
I0
atp3800
Rp3801
(dp3802
g14
I00
sg32
I01
sg15
I00
sbsbsg15
I00
sg3513
g0
(g462
g2
Ntp3803
Rp3804
(dp3805
g14
I00
sg32
I01
sg105
I00
sg15
I00
sbsg3514
g0
(g462
g2
Ntp3806
Rp3807
(dp3808
g14
I00
sg32
I01
sg105
I00
sg15
I00
sbsg3515
g0
(g325
g2
Ntp3809
Rp3810
(dp3811
g14
I00
sg32
I01
sg105
F20.0
sg15
I00
sbsg3516
g0
(g83
g20
(lp3812
g0
(g85
g2
Ntp3813
Rp3814
(dp3815
g14
I00
sg32
I01
sg15
I00
sS'crosstalk'
p3816
g0
(g325
g2
Ntp3817
Rp3818
(dp3819
g14
I00
sg32
I01
sg105
F0.0
sg15
I00
sbsS'nonlin1'
p3820
g0
(g325
g2
Ntp3821
Rp3822
(dp3823
g14
I00
sg32
I01
sg105
F1.0
sg15
I00
sbsS'nonlin3'
p3824
g0
(g325
g2
Ntp3825
Rp3826
(dp3827
g14
I00
sg32
I01
sg105
F0.0
sg15
I00
sbsS'nonlin2'
p3828
g0
(g325
g2
Ntp3829
Rp3830
(dp3831
g14
I00
sg32
I01
sg105
F0.0
sg15
I00
sbsg11
(lp3832
g3820
ag3824
ag3828
aS'pixels'
p3833
ag3816
asg3833
g0
(g2058
g2
Ntp3834
Rp3835
(dp3836
g14
I00
sg32
I01
sg105
I36000
sg15
I00
sbsbag0
(g85
g2
Ntp3837
Rp3838
(dp3839
g14
I00
sg32
I01
sg15
I00
sg3816
g0
(g325
g2
Ntp3840
Rp3841
(dp3842
g14
I00
sg32
I01
sg105
F0.0
sg15
I00
sbsg3820
g0
(g325
g2
Ntp3843
Rp3844
(dp3845
g14
I00
sg32
I01
sg105
F1.0
sg15
I00
sbsg3824
g0
(g325
g2
Ntp3846
Rp3847
(dp3848
g14
I00
sg32
I01
sg105
F0.0
sg15
I00
sbsg3828
g0
(g325
g2
Ntp3849
Rp3850
(dp3851
g14
I00
sg32
I01
sg105
F0.0
sg15
I00
sbsg11
(lp3852
g3820
ag3824
ag3828
ag3833
ag3816
asg3833
g0
(g2058
g2
Ntp3853
Rp3854
(dp3855
g14
I00
sg32
I01
sg105
I2500
sg15
I00
sbsbag0
(g85
g2
Ntp3856
Rp3857
(dp3858
g14
I00
sg32
I01
sg15
I00
sg3816
g0
(g325
g2
Ntp3859
Rp3860
(dp3861
g14
I00
sg32
I01
sg105
F0.17
sg15
I00
sbsg3820
g0
(g325
g2
Ntp3862
Rp3863
(dp3864
g14
I00
sg32
I01
sg105
F1.00985
sg15
I00
sbsg3824
g0
(g325
g2
Ntp3865
Rp3866
(dp3867
g14
I00
sg32
I01
sg105
F2.86282e-10
sg15
I00
sbsg3828
g0
(g325
g2
Ntp3868
Rp3869
(dp3870
g14
I00
sg32
I01
sg105
F7.84089e-06
sg15
I00
sbsg11
(lp3871
g3820
ag3824
ag3828
ag3833
ag3816
asg3833
g0
(g2058
g2
Ntp3872
Rp3873
(dp3874
g14
I00
sg32
I01
sg105
I27370
sg15
I00
sbsbag0
(g85
g2
Ntp3875
Rp3876
(dp3877
g14
I00
sg32
I01
sg15
I00
sg3816
g0
(g325
g2
Ntp3878
Rp3879
(dp3880
g14
I00
sg32
I01
sg105
F0.196
sg15
I00
sbsg3820
g0
(g325
g2
Ntp3881
Rp3882
(dp3883
g14
I00
sg32
I01
sg105
F1.00546
sg15
I00
sbsg3824
g0
(g325
g2
Ntp3884
Rp3885
(dp3886
g14
I00
sg32
I01
sg105
F1.27011e-10
sg15
I00
sbsg3828
g0
(g325
g2
Ntp3887
Rp3888
(dp3889
g14
I00
sg32
I01
sg105
F6.40239e-06
sg15
I00
sbsg11
(lp3890
g3820
ag3824
ag3828
ag3833
ag3816
asg3833
g0
(g2058
g2
Ntp3891
Rp3892
(dp3893
g14
I00
sg32
I01
sg105
I38018
sg15
I00
sbsbag0
(g85
g2
Ntp3894
Rp3895
(dp3896
g14
I00
sg32
I01
sg15
I00
sg3816
g0
(g325
g2
Ntp3897
Rp3898
(dp3899
g14
I00
sg32
I01
sg105
F0.17
sg15
I00
sbsg3820
g0
(g325
g2
Ntp3900
Rp3901
(dp3902
g14
I00
sg32
I01
sg105
F1.00985
sg15
I00
sbsg3824
g0
(g325
g2
Ntp3903
Rp3904
(dp3905
g14
I00
sg32
I01
sg105
F2.86282e-10
sg15
I00
sbsg3828
g0
(g325
g2
Ntp3906
Rp3907
(dp3908
g14
I00
sg32
I01
sg105
F7.84089e-06
sg15
I00
sbsg11
(lp3909
g3820
ag3824
ag3828
ag3833
ag3816
asg3833
g0
(g2058
g2
Ntp3910
Rp3911
(dp3912
g14
I00
sg32
I01
sg105
I27370
sg15
I00
sbsbag0
(g85
g2
Ntp3913
Rp3914
(dp3915
g14
I00
sg32
I01
sg15
I00
sg3816
g0
(g325
g2
Ntp3916
Rp3917
(dp3918
g14
I00
sg32
I01
sg105
F0.196
sg15
I00
sbsg3820
g0
(g325
g2
Ntp3919
Rp3920
(dp3921
g14
I00
sg32
I01
sg105
F1.00546
sg15
I00
sbsg3824
g0
(g325
g2
Ntp3922
Rp3923
(dp3924
g14
I00
sg32
I01
sg105
F1.27011e-10
sg15
I00
sbsg3828
g0
(g325
g2
Ntp3925
Rp3926
(dp3927
g14
I00
sg32
I01
sg105
F6.40239e-06
sg15
I00
sbsg11
(lp3928
g3820
ag3824
ag3828
ag3833
ag3816
asg3833
g0
(g2058
g2
Ntp3929
Rp3930
(dp3931
g14
I00
sg32
I01
sg105
I38018
sg15
I00
sbsbag0
(g85
g2
Ntp3932
Rp3933
(dp3934
g14
I00
sg32
I01
sg15
I00
sg3816
g0
(g325
g2
Ntp3935
Rp3936
(dp3937
g14
I00
sg32
I01
sg105
F0.0
sg15
I00
sbsg3820
g0
(g325
g2
Ntp3938
Rp3939
(dp3940
g14
I00
sg32
I01
sg105
F1.0
sg15
I00
sbsg3824
g0
(g325
g2
Ntp3941
Rp3942
(dp3943
g14
I00
sg32
I01
sg105
F0.0
sg15
I00
sbsg3828
g0
(g325
g2
Ntp3944
Rp3945
(dp3946
g14
I00
sg32
I01
sg105
F0.0
sg15
I00
sbsg11
(lp3947
g3820
ag3824
ag3828
ag3833
ag3816
asg3833
g0
(g2058
g2
Ntp3948
Rp3949
(dp3950
g14
I00
sg32
I01
sg105
I0
sg15
I00
sbsbatp3951
Rp3952
(dp3953
g14
I00
sg32
I01
sg15
I00
sg33
I1
sbsg34
g3011
sg3517
g0
(g85
g2
Ntp3954
Rp3955
(dp3956
g14
I00
sg32
I01
sg3413
g0
(g2058
g2
Ntp3957
Rp3958
(dp3959
g14
I00
sg32
I01
sg105
I1
sg15
I00
sbsg15
I00
sg3417
g0
(g325
g2
Ntp3960
Rp3961
(dp3962
g14
I00
sg32
I01
sg105
F3.33
sg15
I00
sbsg3421
g0
(g2058
g2
Ntp3963
Rp3964
(dp3965
g14
I00
sg32
I01
sg105
I301
sg15
I00
sbsg3425
g0
(g338
g20
(lp3966
F0.0
atp3967
Rp3968
(dp3969
g14
I00
sg32
I01
sg15
I00
sbsg3430
g0
(g338
g20
(lp3970
F0.0697
aF-0.7405
aF12.38
aF-671.9
atp3971
Rp3972
(dp3973
g14
I00
sg32
I01
sg15
I00
sbsg3435
g0
(g338
g20
(lp3974
F0.297
aF0.298
aF0.298
aF0.313
atp3975
Rp3976
(dp3977
g14
I00
sg32
I01
sg15
I00
sbsg3479
g0
(g338
g20
(lp3978
F0.14
aF0.135
atp3979
Rp3980
(dp3981
g14
I00
sg32
I01
sg15
I00
sbsg3470
g0
(g462
g2
Ntp3982
Rp3983
(dp3984
g14
I00
sg32
I01
sg105
I00
sg15
I00
sbsg11
(lp3985
g3413
ag3417
ag3421
ag3475
ag3430
ag3435
ag3479
ag3470
ag3425
ag3476
ag3477
ag3478
asg3475
g0
(g325
g2
Ntp3986
Rp3987
(dp3988
g14
I00
sg32
I01
sg105
F0.0
sg15
I00
sbsg3476
g0
(g325
g2
Ntp3989
Rp3990
(dp3991
g14
I00
sg32
I01
sg105
F13.33
sg15
I00
sbsg3477
g0
(g2058
g2
Ntp3992
Rp3993
(dp3994
g14
I00
sg32
I01
sg105
I301
sg15
I00
sbsg3478
g0
(g338
g20
(lp3995
F0.0
aF0.0
atp3996
Rp3997
(dp3998
g14
I00
sg32
I01
sg15
I00
sbsbsbsg2702
g2704
sg2228
g2231
ssg2106
g2097
sg2387
g2363
sg3378
g3380
sS'CSCGeometryESModule'
p3999
g0
(g7
g2
Ntp4000
Rp4001
(dp4002
g11
(lp4003
g2128
aS'useDDD'
p4004
aS'debugV'
p4005
aS'useGangedStripsInME1a'
p4006
ag2688
aS'useOnlyWiresInME1a'
p4007
aS'useRealWireGeometry'
p4008
aS'useCentreTIOffsets'
p4009
ag2186
asg14
I00
sg2128
g0
(g101
g2
Ntp4010
Rp4011
(dp4012
g14
I00
sg32
I01
sg105
g77
sg15
I00
sbsg15
I00
sg4005
g0
(g462
g2
Ntp4013
Rp4014
(dp4015
g14
I00
sg32
I00
sg105
I00
sg15
I00
sbsg17
g18
sg4006
g0
(g462
g2
Ntp4016
Rp4017
(dp4018
g14
I00
sg32
I01
sg105
I01
sg15
I00
sbsg2688
g0
(g101
g2
Ntp4019
Rp4020
(dp4021
g14
I00
sg32
I01
sg105
g77
sg15
I00
sbsg4007
g0
(g462
g2
Ntp4022
Rp4023
(dp4024
g14
I00
sg32
I01
sg105
I00
sg15
I00
sbsg4004
g0
(g462
g2
Ntp4025
Rp4026
(dp4027
g14
I00
sg32
I01
sg105
I00
sg15
I00
sbsg16
I52
sg4009
g0
(g462
g2
Ntp4028
Rp4029
(dp4030
g14
I00
sg32
I01
sg105
I00
sg15
I00
sbsg34
g3999
sg4008
g0
(g462
g2
Ntp4031
Rp4032
(dp4033
g14
I00
sg32
I01
sg105
I01
sg15
I00
sbsg2186
g0
(g462
g2
Ntp4034
Rp4035
(dp4036
g14
I00
sg32
I01
sg105
I01
sg15
I00
sbsg35
g3999
sbsS'EcalBarrelGeometryFromDBEP'
p4037
g0
(g7
g2
Ntp4038
Rp4039
(dp4040
g11
(lp4041
g2186
asg14
I00
sg15
I01
sg16
I52
sg17
g18
sg34
g4037
sg2186
g0
(g462
g2
Ntp4042
Rp4043
(dp4044
g14
I00
sg32
I01
sg105
I01
sg15
I01
sbsg35
g4037
sbsS'trackerNumberingGeometryDB'
p4045
g0
(g7
g2
Ntp4046
Rp4047
(dp4048
g11
(lp4049
g2128
ag2687
asg14
I00
sg2128
g0
(g101
g2
Ntp4050
Rp4051
(dp4052
g14
I00
sg32
I01
sg105
g77
sg15
I00
sbsg15
I00
sg16
I52
sg17
g18
sg34
g4045
sg2687
g0
(g462
g2
Ntp4053
Rp4054
(dp4055
g14
I00
sg32
I01
sg105
I00
sg15
I00
sbsg35
S'TrackerGeometricDetESModule'
p4056
sbsg471
g427
sS'_Process__name'
p4057
S'TagAndProbe'
p4058
sg3011
g3390
sg420
g418
sS'siStripGainESProducer'
p4059
g0
(g7
g2
Ntp4060
Rp4061
(dp4062
g11
(lp4063
S'printDebug'
p4064
ag2128
aS'APVGain'
p4065
aS'AutomaticNormalization'
p4066
asg14
I00
sg2128
g0
(g101
g2
Ntp4067
Rp4068
(dp4069
g14
I00
sg32
I01
sg105
g77
sg15
I00
sbsg15
I00
sg4066
g0
(g462
g2
Ntp4070
Rp4071
(dp4072
g14
I00
sg32
I01
sg105
I00
sg15
I00
sbsg16
I52
sg4064
g0
(g462
g2
Ntp4073
Rp4074
(dp4075
g14
I00
sg32
I00
sg105
I00
sg15
I00
sbsg17
g18
sg4065
g0
(g83
g20
(lp4076
g0
(g85
g2
Ntp4077
Rp4078
(dp4079
g14
I00
sg32
I01
sg15
I00
sS'Label'
p4080
g0
(g101
g2
Ntp4081
Rp4082
(dp4083
g14
I00
sg32
I00
sg105
g77
sg15
I00
sbsS'Record'
p4084
g0
(g101
g2
Ntp4085
Rp4086
(dp4087
g14
I00
sg32
I01
sg105
S'SiStripApvGainRcd'
p4088
sg15
I00
sbsS'NormalizationFactor'
p4089
g0
(g325
g2
Ntp4090
Rp4091
(dp4092
g14
I00
sg32
I00
sg105
F1.0
sg15
I00
sbsg11
(lp4093
g4084
ag4089
ag4080
asbag0
(g85
g2
Ntp4094
Rp4095
(dp4096
g14
I00
sg32
I01
sg15
I00
sg4080
g0
(g101
g2
Ntp4097
Rp4098
(dp4099
g14
I00
sg32
I00
sg105
g77
sg15
I00
sbsg4084
g0
(g101
g2
Ntp4100
Rp4101
(dp4102
g14
I00
sg32
I01
sg105
S'SiStripApvGain2Rcd'
p4103
sg15
I00
sbsg4089
g0
(g325
g2
Ntp4104
Rp4105
(dp4106
g14
I00
sg32
I00
sg105
F1.0
sg15
I00
sbsg11
(lp4107
g4084
ag4089
ag4080
asbatp4108
Rp4109
(dp4110
g14
I00
sg32
I01
sg15
I00
sg33
I1
sbsg34
g4059
sg35
S'SiStripGainESProducer'
p4111
sbsS'RPCGeometryESModule'
p4112
g0
(g7
g2
Ntp4113
Rp4114
(dp4115
g11
(lp4116
g4004
aS'compatibiltyWith11'
p4117
asg14
I00
sg15
I00
sg16
I52
sg17
g18
sg4004
g0
(g462
g2
Ntp4118
Rp4119
(dp4120
g14
I00
sg32
I00
sg105
I00
sg15
I00
sbsg4117
g0
(g462
g2
Ntp4121
Rp4122
(dp4123
g14
I00
sg32
I00
sg105
I01
sg15
I00
sbsg34
g4112
sg35
g4112
sbsS'sistripconn'
p4124
g0
(g7
g2
Ntp4125
Rp4126
(dp4127
g11
(lp4128
sg14
I00
sg15
I00
sg16
I52
sg17
g18
sg34
g4124
sg35
S'SiStripConnectivity'
p4129
sbsS'ZdcGeometryFromDBEP'
p4130
g0
(g7
g2
Ntp4131
Rp4132
(dp4133
g11
(lp4134
g2186
asg14
I00
sg15
I00
sg16
I52
sg17
g18
sg34
g4130
sg2186
g0
(g462
g2
Ntp4135
Rp4136
(dp4137
g14
I00
sg32
I01
sg105
I00
sg15
I00
sbsg35
g4130
sbsS'TrackerRecoGeometryESProducer'
p4138
g0
(g7
g2
Ntp4139
Rp4140
(dp4141
g11
(lp4142
sg14
I00
sg15
I00
sg16
I52
sg17
g18
sg34
g4138
sg35
g4138
sbsg3335
g3337
sS'siStripLorentzAngleDepESProducer'
p4143
g0
(g7
g2
Ntp4144
Rp4145
(dp4146
g11
(lp4147
g2964
aS'LorentzAngleDeconvMode'
p4148
aS'LorentzAnglePeakMode'
p4149
asg14
I00
sg15
I00
sg16
I52
sg17
g18
sg2964
g0
(g85
g2
Ntp4150
Rp4151
(dp4152
g14
I00
sg32
I01
sg15
I00
sg2113
g0
(g101
g2
Ntp4153
Rp4154
(dp4155
g14
I00
sg32
I00
sg105
g77
sg15
I00
sbsg2203
g0
(g101
g2
Ntp4156
Rp4157
(dp4158
g14
I00
sg32
I01
sg105
g2976
sg15
I00
sbsg11
(lp4159
g2203
ag2113
asbsg34
g4143
sg4149
g0
(g85
g2
Ntp4160
Rp4161
(dp4162
g14
I00
sg32
I01
sg15
I00
sg2113
g0
(g101
g2
Ntp4163
Rp4164
(dp4165
g14
I00
sg32
I00
sg105
g2984
sg15
I00
sbsg2203
g0
(g101
g2
Ntp4166
Rp4167
(dp4168
g14
I00
sg32
I01
sg105
S'SiStripLorentzAngleRcd'
p4169
sg15
I00
sbsg11
(lp4170
g2203
ag2113
asbsg35
S'SiStripLorentzAngleDepESProducer'
p4171
sg4148
g0
(g85
g2
Ntp4172
Rp4173
(dp4174
g14
I00
sg32
I01
sg15
I00
sg2113
g0
(g101
g2
Ntp4175
Rp4176
(dp4177
g14
I00
sg32
I00
sg105
g2996
sg15
I00
sbsg2203
g0
(g101
g2
Ntp4178
Rp4179
(dp4180
g14
I00
sg32
I01
sg105
g4169
sg15
I00
sbsg11
(lp4181
g2203
ag2113
asbsbsS'CaloTowerTopologyEP'
p4182
g0
(g7
g2
Ntp4183
Rp4184
(dp4185
g11
(lp4186
sg14
I00
sg15
I00
sg16
I52
sg17
g18
sg34
g4182
sg35
g4182
sbsS'ParabolicParametrizedMagneticFieldProducer'
p4187
g0
(g7
g2
Ntp4188
Rp4189
(dp4190
g11
(lp4191
S'version'
p4192
ag3126
ag2113
asg14
I00
sg15
I01
sg16
I52
sg17
g18
sg2113
g0
(g101
g2
Ntp4193
Rp4194
(dp4195
g14
I00
sg32
I00
sg105
S'ParabolicMf'
p4196
sg15
I01
sbsg4192
g0
(g101
g2
Ntp4197
Rp4198
(dp4199
g14
I00
sg32
I01
sg105
S'Parabolic'
p4200
sg15
I00
sbsg3126
g0
(g2058
g2
Ntp4201
Rp4202
(dp4203
g14
I00
sg32
I01
sg105
I18268
sg15
I01
sbsg34
g4187
sg35
S'AutoParametrizedMagneticFieldProducer'
p4204
sbsg2941
g2777
sS'stripCPEESProducer'
p4205
g0
(g7
g2
Ntp4206
Rp4207
(dp4208
g11
(lp4209
S'ComponentType'
p4210
ag3235
aS'parameters'
p4211
asg14
I00
sg15
I00
sg4211
g0
(g85
g2
Ntp4212
Rp4213
(dp4214
g14
I00
sg32
I01
sg15
I00
sg11
(lp4215
sbsg16
I52
sg3235
g0
(g101
g2
Ntp4216
Rp4217
(dp4218
g14
I00
sg32
I01
sg105
S'stripCPE'
p4219
sg15
I00
sbsg4210
g0
(g101
g2
Ntp4220
Rp4221
(dp4222
g14
I00
sg32
I01
sg105
S'SimpleStripCPE'
p4223
sg15
I00
sbsg17
g18
sg34
g4205
sg35
S'StripCPEESProducer'
p4224
sbsS'trackerTopology'
p4225
g0
(g7
g2
Ntp4226
Rp4227
(dp4228
g11
(lp4229
g2128
asg14
I00
sg2128
g0
(g101
g2
Ntp4230
Rp4231
(dp4232
g14
I00
sg32
I01
sg105
g77
sg15
I00
sbsg15
I00
sg16
I52
sg17
g18
sg34
g4225
sg35
S'TrackerTopologyEP'
p4233
sbsS'HcalGeometryFromDBEP'
p4234
g0
(g7
g2
Ntp4235
Rp4236
(dp4237
g11
(lp4238
g2186
asg14
I00
sg15
I01
sg16
I52
sg17
g18
sg34
g4234
sg2186
g0
(g462
g2
Ntp4239
Rp4240
(dp4241
g14
I00
sg32
I01
sg105
I01
sg15
I01
sbsg35
g4234
sbsg410
g361
sg3249
g3251
sg3004
g3007
sS'EcalElectronicsMappingBuilder'
p4242
g0
(g7
g2
Ntp4243
Rp4244
(dp4245
g11
(lp4246
sg14
I00
sg15
I00
sg16
I52
sg17
g18
sg34
g4242
sg35
g4242
sbsS'StripCPEfromTrackAngleESProducer'
p4247
g0
(g7
g2
Ntp4248
Rp4249
(dp4250
g11
(lp4251
g4210
ag3235
ag4211
asg14
I00
sg15
I01
sg4211
g0
(g85
g2
Ntp4252
Rp4253
(dp4254
g14
I00
sg32
I01
sS'maxChgOneMIP'
p4255
g0
(g325
g2
Ntp4256
Rp4257
(dp4258
g14
I00
sg32
I01
sg105
F6000.0
sg15
I00
sbsS'mLC_P2'
p4259
g0
(g325
g2
Ntp4260
Rp4261
(dp4262
g14
I00
sg32
I01
sg105
F0.3
sg15
I00
sbsS'mLC_P1'
p4263
g0
(g325
g2
Ntp4264
Rp4265
(dp4266
g14
I00
sg32
I01
sg105
F0.618
sg15
I00
sbsS'mLC_P0'
p4267
g0
(g325
g2
Ntp4268
Rp4269
(dp4270
g14
I00
sg32
I01
sg105
F-0.326
sg15
I00
sbsS'useLegacyError'
p4271
g0
(g462
g2
Ntp4272
Rp4273
(dp4274
g14
I00
sg32
I01
sg105
I00
sg15
I00
sbsS'mTIB_P1'
p4275
g0
(g325
g2
Ntp4276
Rp4277
(dp4278
g14
I00
sg32
I01
sg105
F0.202
sg15
I00
sbsS'mTEC_P1'
p4279
g0
(g325
g2
Ntp4280
Rp4281
(dp4282
g14
I00
sg32
I01
sg105
F0.471
sg15
I00
sbsS'mTEC_P0'
p4283
g0
(g325
g2
Ntp4284
Rp4285
(dp4286
g14
I00
sg32
I01
sg105
F-1.885
sg15
I00
sbsS'mTOB_P0'
p4287
g0
(g325
g2
Ntp4288
Rp4289
(dp4290
g14
I00
sg32
I01
sg105
F-1.026
sg15
I00
sbsS'mTOB_P1'
p4291
g0
(g325
g2
Ntp4292
Rp4293
(dp4294
g14
I00
sg32
I01
sg105
F0.253
sg15
I00
sbsS'mTIB_P0'
p4295
g0
(g325
g2
Ntp4296
Rp4297
(dp4298
g14
I00
sg32
I01
sg105
F-0.742
sg15
I00
sbsg11
(lp4299
g4255
ag4259
ag4263
ag4267
ag4271
ag4279
ag4283
ag4287
ag4291
ag4295
ag4275
aS'mTID_P0'
p4300
aS'mTID_P1'
p4301
asg4300
g0
(g325
g2
Ntp4302
Rp4303
(dp4304
g14
I00
sg32
I01
sg105
F-1.427
sg15
I00
sbsg4301
g0
(g325
g2
Ntp4305
Rp4306
(dp4307
g14
I00
sg32
I01
sg105
F0.433
sg15
I00
sbsg15
I00
sbsg16
I4
sg3235
g0
(g101
g2
Ntp4308
Rp4309
(dp4310
g14
I00
sg32
I01
sg105
S'StripCPEfromTrackAngle'
p4311
sg15
I00
sbsg4210
g0
(g101
g2
Ntp4312
Rp4313
(dp4314
g14
I00
sg32
I01
sg105
g4311
sg15
I00
sbsg17
S'/cvmfs/cms.cern.ch/slc6_amd64_gcc630/cms/cmssw-patch/CMSSW_9_4_6_patch1/python/RecoLocalTracker/SiStripRecHitConverter/StripCPEfromTrackAngle_cfi.py'
p4315
sg34
g4247
sg35
g4224
sbsS'_Process__aliases'
p4316
(dp4317
sS'GlobalTrackingGeometryESProducer'
p4318
g0
(g7
g2
Ntp4319
Rp4320
(dp4321
g11
(lp4322
sg14
I00
sg15
I00
sg16
I52
sg17
g18
sg34
g4318
sg35
g4318
sbsS'EcalLaserCorrectionService'
p4323
g0
(g7
g2
Ntp4324
Rp4325
(dp4326
g11
(lp4327
sg14
I00
sg15
I00
sg16
I52
sg17
g18
sg34
g4323
sg35
g4323
sbsg275
g247
sS'_cloneToObjectDict'
p4328
(dp4329
I47071579469456
g0
(g7
g2
Ntp4330
Rp4331
(dp4332
g11
(lp4333
g2128
ag4004
ag4005
ag4006
ag2688
ag4007
ag4008
ag4009
ag2186
asg14
I00
sg2128
g0
(g101
g2
Ntp4334
Rp4335
(dp4336
g14
I00
sg32
I01
sg105
g3069
sg15
I01
sbsg15
I01
sg4005
g0
(g462
g2
Ntp4337
Rp4338
(dp4339
g14
I00
sg32
I00
sg105
I00
sg15
I00
sbsg17
S'/cvmfs/cms.cern.ch/slc6_amd64_gcc630/cms/cmssw-patch/CMSSW_9_4_6_patch1/python/Geometry/CSCGeometryBuilder/idealForDigiCscGeometryDB_cff.py'
p4340
sg4006
g0
(g462
g2
Ntp4341
Rp4342
(dp4343
g14
I00
sg32
I01
sg105
I01
sg15
I00
sbsg2688
g0
(g101
g2
Ntp4344
Rp4345
(dp4346
g14
I00
sg32
I01
sg105
g3073
sg15
I01
sbsg4007
g0
(g462
g2
Ntp4347
Rp4348
(dp4349
g14
I00
sg32
I01
sg105
I00
sg15
I00
sbsg4004
g0
(g462
g2
Ntp4350
Rp4351
(dp4352
g14
I00
sg32
I01
sg105
I00
sg15
I00
sbsg16
I8
sg4009
g0
(g462
g2
Ntp4353
Rp4354
(dp4355
g14
I00
sg32
I01
sg105
I00
sg15
I00
sbsg34
S'idealForDigiCSCGeometry'
p4356
sg4008
g0
(g462
g2
Ntp4357
Rp4358
(dp4359
g14
I00
sg32
I01
sg105
I01
sg15
I00
sbsg2186
g0
(g462
g2
Ntp4360
Rp4361
(dp4362
g14
I00
sg32
I01
sg105
I00
sg15
I01
sbsg35
g3999
sbsI47071579874944
g418
sI47071579688464
g4126
sI47071579979920
g2726
sI47071579423696
g4236
sI47071579423760
g0
(g7
g2
Ntp4363
Rp4364
(dp4365
g11
(lp4366
sg14
I00
sg15
I00
sg16
I52
sg17
g18
sg34
S'HcalAlignmentEP'
p4367
sg35
g4367
sbsI47071579528144
g4325
sI47071579586768
g0
(g7
g2
Ntp4368
Rp4369
(dp4370
g11
(lp4371
S'file'
p4372
aS'dump'
p4373
asg14
I00
sg15
I00
sg4373
g0
(g19
g20
(lp4374
g77
atp4375
Rp4376
(dp4377
g14
I00
sg32
I00
sg15
I00
sg33
I1
sbsg16
I52
sg17
g18
sg4372
g0
(g101
g2
Ntp4378
Rp4379
(dp4380
g14
I00
sg32
I00
sg105
g77
sg15
I00
sbsg34
S'hcal_db_producer'
p4381
sg35
S'HcalDbProducer'
p4382
sbsI47071580046608
g361
sI47071580091344
g41
sI47071579424080
g2183
sI47071579469200
g0
(g7
g2
Ntp4383
Rp4384
(dp4385
g11
(lp4386
g2128
asg14
I00
sg2128
g0
(g101
g2
Ntp4387
Rp4388
(dp4389
g14
I00
sg32
I01
sg105
g3073
sg15
I01
sbsg15
I01
sg16
I5
sg17
S'/cvmfs/cms.cern.ch/slc6_amd64_gcc630/cms/cmssw-patch/CMSSW_9_4_6_patch1/python/Alignment/CommonAlignmentProducer/fakeForIdealAlignmentProducer_cfi.py'
p4390
sg34
S'fakeForIdealAlignment'
p4391
sg35
S'FakeAlignmentProducer'
p4392
sbsI47071579645392
g3007
sI47071579982480
g213
sI47071579952656
g2136
sI47071579399824
g3106
sI47071579734224
g2195
sI47071580049104
g62
sI47071580383696
g2769
sI47071579686864
g4207
sI47071579400208
g4047
sI47071580363600
g2777
sI47071579686992
g4249
sI47071579953296
g3294
sI47071579646416
g0
(g7
g2
Ntp4393
Rp4394
(dp4395
g11
(lp4396
g2128
asg14
I00
sg2128
g0
(g101
g2
Ntp4397
Rp4398
(dp4399
g14
I00
sg32
I01
sg105
g77
sg15
I00
sbsg15
I00
sg16
I52
sg17
g18
sg34
S'CastorDbProducer'
p4400
sg35
g4400
sbsI47071579425104
g4132
sI47071579981840
g3337
sI47071580383632
g2363
sI47071579470288
g0
(g7
g2
Ntp4401
Rp4402
(dp4403
g11
(lp4404
g2128
ag2687
ag2186
ag2688
asg14
I00
sg2128
g0
(g101
g2
Ntp4405
Rp4406
(dp4407
g14
I00
sg32
I01
sg105
g3069
sg15
I01
sbsg15
I01
sg2688
g0
(g101
g2
Ntp4408
Rp4409
(dp4410
g14
I00
sg32
I01
sg105
g3073
sg15
I01
sbsg17
S'/cvmfs/cms.cern.ch/slc6_amd64_gcc630/cms/cmssw-patch/CMSSW_9_4_6_patch1/python/Geometry/DTGeometryBuilder/idealForDigiDtGeometryDB_cff.py'
p4411
sg16
I8
sg34
S'idealForDigiDTGeometry'
p4412
sg2687
g0
(g462
g2
Ntp4413
Rp4414
(dp4415
g14
I00
sg32
I01
sg105
I00
sg15
I00
sbsg2186
g0
(g462
g2
Ntp4416
Rp4417
(dp4418
g14
I00
sg32
I01
sg105
I00
sg15
I01
sbsg35
g3104
sbsI47071580384016
g2354
sI47071579686544
g2961
sI47071579735376
g0
(g7
g2
Ntp4419
Rp4420
(dp4421
g11
(lp4422
g2128
aS'PrintDebugOutput'
p4423
aS'ThresholdForReducedGranularity'
p4424
aS'UseEmptyRunInfo'
p4425
aS'ReduceGranularity'
p4426
ag2198
asg14
I00
sg2128
g0
(g101
g2
Ntp4427
Rp4428
(dp4429
g14
I00
sg32
I01
sg105
g77
sg15
I00
sbsg15
I01
sg16
I52
sg17
g18
sg4424
g0
(g325
g2
Ntp4430
Rp4431
(dp4432
g14
I00
sg32
I01
sg105
F0.3
sg15
I00
sbsg34
S'siStripQualityESProducer'
p4433
sg4425
g0
(g462
g2
Ntp4434
Rp4435
(dp4436
g14
I00
sg32
I01
sg105
I00
sg15
I00
sbsg4426
g0
(g462
g2
Ntp4437
Rp4438
(dp4439
g14
I00
sg32
I01
sg105
I00
sg15
I00
sbsg2198
g0
(g83
g20
(lp4440
g0
(g85
g2
Ntp4441
Rp4442
(dp4443
g14
I00
sg32
I01
sg15
I00
sg2203
g0
(g101
g2
Ntp4444
Rp4445
(dp4446
g14
I00
sg32
I01
sg105
S'SiStripDetVOffRcd'
p4447
sg15
I00
sbsg2208
g0
(g101
g2
Ntp4448
Rp4449
(dp4450
g14
I00
sg32
I01
sg105
g77
sg15
I00
sbsg11
(lp4451
g2203
ag2208
asbag0
(g85
g2
Ntp4452
Rp4453
(dp4454
g14
I00
sg32
I01
sg15
I00
sg2203
g0
(g101
g2
Ntp4455
Rp4456
(dp4457
g14
I00
sg32
I01
sg105
S'SiStripDetCablingRcd'
p4458
sg15
I00
sbsg2208
g0
(g101
g2
Ntp4459
Rp4460
(dp4461
g14
I00
sg32
I01
sg105
g77
sg15
I00
sbsg11
(lp4462
g2203
ag2208
asbag0
(g85
g2
Ntp4463
Rp4464
(dp4465
g14
I00
sg32
I01
sg15
I00
sg2203
g0
(g101
g2
Ntp4466
Rp4467
(dp4468
g14
I00
sg32
I01
sg105
S'RunInfoRcd'
p4469
sg15
I00
sbsg2208
g0
(g101
g2
Ntp4470
Rp4471
(dp4472
g14
I00
sg32
I01
sg105
g77
sg15
I00
sbsg11
(lp4473
g2203
ag2208
asbag0
(g85
g2
Ntp4474
Rp4475
(dp4476
g14
I00
sg32
I01
sg15
I00
sg2203
g0
(g101
g2
Ntp4477
Rp4478
(dp4479
g14
I00
sg32
I01
sg105
S'SiStripBadChannelRcd'
p4480
sg15
I00
sbsg2208
g0
(g101
g2
Ntp4481
Rp4482
(dp4483
g14
I00
sg32
I01
sg105
g77
sg15
I00
sbsg11
(lp4484
g2203
ag2208
asbag0
(g85
g2
Ntp4485
Rp4486
(dp4487
g14
I00
sg32
I01
sg15
I00
sg2203
g0
(g101
g2
Ntp4488
Rp4489
(dp4490
g14
I00
sg32
I01
sg105
S'SiStripBadFiberRcd'
p4491
sg15
I00
sbsg2208
g0
(g101
g2
Ntp4492
Rp4493
(dp4494
g14
I00
sg32
I01
sg105
g77
sg15
I00
sbsg11
(lp4495
g2203
ag2208
asbag0
(g85
g2
Ntp4496
Rp4497
(dp4498
g14
I00
sg32
I01
sg15
I00
sg2203
g0
(g101
g2
Ntp4499
Rp4500
(dp4501
g14
I00
sg32
I01
sg105
S'SiStripBadModuleRcd'
p4502
sg15
I00
sbsg2208
g0
(g101
g2
Ntp4503
Rp4504
(dp4505
g14
I00
sg32
I01
sg105
g77
sg15
I00
sbsg11
(lp4506
g2203
ag2208
asbag0
(g85
g2
Ntp4507
Rp4508
(dp4509
g14
I00
sg32
I01
sg15
I00
sg2203
g0
(g101
g2
Ntp4510
Rp4511
(dp4512
g14
I00
sg32
I01
sg105
S'SiStripBadStripRcd'
p4513
sg15
I00
sbsg2208
g0
(g101
g2
Ntp4514
Rp4515
(dp4516
g14
I00
sg32
I01
sg105
g77
sg15
I00
sbsg11
(lp4517
g2203
ag2208
asbatp4518
Rp4519
(dp4520
g14
I00
sg32
I01
sg15
I00
sg33
I1
sbsg35
S'SiStripQualityESProducer'
p4521
sg4423
g0
(g462
g2
Ntp4522
Rp4523
(dp4524
g14
I00
sg32
I01
sg105
I00
sg15
I00
sbsbsI47071579688336
g3231
sI47071579425424
g2651
sI47071579527632
g2231
sI47071579400912
g4140
sI47071579953936
g153
sI47071579400656
g2684
sI47071579401040
g4227
sI47071579471504
g3092
sI47071579425744
g2951
sI47071579401232
g2405
sI47071579468304
g0
(g7
g2
Ntp4525
Rp4526
(dp4527
g11
(lp4528
g2128
asg14
I00
sg2128
g0
(g101
g2
Ntp4529
Rp4530
(dp4531
g14
I00
sg32
I01
sg105
g77
sg15
I00
sbsg15
I00
sg16
I52
sg17
g18
sg34
S'hcalDDDRecConstants'
p4532
sg35
S'HcalDDDRecConstantsESModule'
p4533
sbsI47071579471120
g2109
sI47071579424592
g4184
sI47071579426192
g4244
sI47071579980432
g184
sI47071579424400
g0
(g7
g2
Ntp4534
Rp4535
(dp4536
g11
(lp4537
S'MergePosition'
p4538
aS'Exclude'
p4539
ag2128
asg14
I00
sg2128
g0
(g101
g2
Ntp4540
Rp4541
(dp4542
g14
I00
sg32
I01
sg105
g77
sg15
I00
sbsg15
I00
sg16
I52
sg4538
g0
(g462
g2
Ntp4543
Rp4544
(dp4545
g14
I00
sg32
I00
sg105
I01
sg15
I00
sbsg17
g18
sg34
S'hcalTopologyIdeal'
p4546
sg4539
g0
(g101
g2
Ntp4547
Rp4548
(dp4549
g14
I00
sg32
I00
sg105
g77
sg15
I00
sbsg35
S'HcalTopologyIdealEP'
p4550
sbsI47071579954576
g2306
sI47071579401616
g3183
sI47071579399184
g4114
sI47071579981136
g3140
sI47071579426448
g2704
sI47071579525392
g3123
sI47071579737808
g3097
sI47071579400848
g4320
sI47071579983632
g247
sI47071579952016
g3251
sI47071579737936
g3380
sI47071579402064
g9
sI47071579644304
g3390
sI47071579685840
g4145
sI47071579901520
g3188
sI47071579684944
g4061
sI47071579586704
g2659
sI47071579899984
g87
sI47071579467984
g2125
sI47071579900816
g3020
sI47071579422992
g2410
sI47071580091216
g427
sI47071579951312
g115
sI47071579423120
g0
(g7
g2
Ntp4551
Rp4552
(dp4553
g11
(lp4554
g2186
asg14
I00
sg15
I01
sg16
I52
sg17
g18
sg34
S'EcalPreshowerGeometryFromDBEP'
p4555
sg2186
g0
(g462
g2
Ntp4556
Rp4557
(dp4558
g14
I00
sg32
I01
sg105
I01
sg15
I01
sbsg35
g4555
sbsI47071579423248
g4039
sI47071579398736
g4001
sI47071580090576
g53
sI47071579898576
g479
sI47071579468496
g3063
sI47071579525904
g4189
sI47071580010832
g277
ssg182
g153
sg4367
g4364
sg4555
g4552
sg4532
g4526
sg4400
g4394
sg113
g87
sg2351
g2354
sg4356
g4331
sS'_Process__subProcesses'
p4559
(lp4560
sg4381
g4369
sg3292
g3294
sg353
g277
sg4546
g4535
sS'_Process__schedule'
p4561
Nsg4433
g4420
sg4412
g4402
sS'_Process__modifiers'
p4562
(tsS'_Process__filters'
p4563
(dp4564
g2941
g2777
ssS'_Process__esproducers'
p4565
(dp4566
g6
g9
sg4433
g4420
sg4323
g4325
sg4138
g4140
sg3121
g3123
sg4247
g4249
sg2649
g2651
sg3181
g3183
sg4318
g4320
sg2107
g2109
sg2682
g2684
sg4143
g4145
sg4546
g4535
sg4367
g4364
sg4555
g4552
sg4400
g4394
sg4532
g4526
sg3999
g4001
sg4037
g4039
sg4045
g4047
sg4242
g4244
sg2949
g2951
sg4356
g4331
sg2181
g2183
sg2959
g2961
sg4381
g4369
sg4059
g4061
sg3229
g3231
sg4112
g4114
sg4412
g4402
sg4130
g4132
sg3104
g3106
sg2408
g2410
sg4124
g4126
sg2193
g2195
sg3061
g3063
sg4182
g4184
sg4187
g4189
sg4205
g4207
sg2123
g2125
sg2403
g2405
sg4225
g4227
sg3090
g3092
sg4391
g4384
sg4234
g4236
ssS'_Process__partialschedules'
p4567
(dp4568
sg4391
g4384
sb.